ARM GAS  C:\msys64\tmp\ccn4BJFy.s 			page 1


   1              		.cpu cortex-m7
   2              		.arch armv7e-m
   3              		.fpu fpv5-sp-d16
   4              		.eabi_attribute 27, 1
   5              		.eabi_attribute 28, 1
   6              		.eabi_attribute 20, 1
   7              		.eabi_attribute 21, 1
   8              		.eabi_attribute 23, 3
   9              		.eabi_attribute 24, 1
  10              		.eabi_attribute 25, 1
  11              		.eabi_attribute 26, 1
  12              		.eabi_attribute 30, 1
  13              		.eabi_attribute 34, 1
  14              		.eabi_attribute 18, 4
  15              		.file	"timers.c"
  16              		.text
  17              	.Ltext0:
  18              		.cfi_sections	.debug_frame
  19              		.section	.text.prvGetNextExpireTime,"ax",%progbits
  20              		.align	1
  21              		.syntax unified
  22              		.thumb
  23              		.thumb_func
  25              	prvGetNextExpireTime:
  26              	.LVL0:
  27              	.LFB17:
  28              		.file 1 "Middlewares/Third_Party/FreeRTOS/Source/timers.c"
   1:Middlewares/Third_Party/FreeRTOS/Source/timers.c **** /*
   2:Middlewares/Third_Party/FreeRTOS/Source/timers.c ****  * FreeRTOS Kernel V10.2.1
   3:Middlewares/Third_Party/FreeRTOS/Source/timers.c ****  * Copyright (C) 2019 Amazon.com, Inc. or its affiliates.  All Rights Reserved.
   4:Middlewares/Third_Party/FreeRTOS/Source/timers.c ****  *
   5:Middlewares/Third_Party/FreeRTOS/Source/timers.c ****  * Permission is hereby granted, free of charge, to any person obtaining a copy of
   6:Middlewares/Third_Party/FreeRTOS/Source/timers.c ****  * this software and associated documentation files (the "Software"), to deal in
   7:Middlewares/Third_Party/FreeRTOS/Source/timers.c ****  * the Software without restriction, including without limitation the rights to
   8:Middlewares/Third_Party/FreeRTOS/Source/timers.c ****  * use, copy, modify, merge, publish, distribute, sublicense, and/or sell copies of
   9:Middlewares/Third_Party/FreeRTOS/Source/timers.c ****  * the Software, and to permit persons to whom the Software is furnished to do so,
  10:Middlewares/Third_Party/FreeRTOS/Source/timers.c ****  * subject to the following conditions:
  11:Middlewares/Third_Party/FreeRTOS/Source/timers.c ****  *
  12:Middlewares/Third_Party/FreeRTOS/Source/timers.c ****  * The above copyright notice and this permission notice shall be included in all
  13:Middlewares/Third_Party/FreeRTOS/Source/timers.c ****  * copies or substantial portions of the Software.
  14:Middlewares/Third_Party/FreeRTOS/Source/timers.c ****  *
  15:Middlewares/Third_Party/FreeRTOS/Source/timers.c ****  * THE SOFTWARE IS PROVIDED "AS IS", WITHOUT WARRANTY OF ANY KIND, EXPRESS OR
  16:Middlewares/Third_Party/FreeRTOS/Source/timers.c ****  * IMPLIED, INCLUDING BUT NOT LIMITED TO THE WARRANTIES OF MERCHANTABILITY, FITNESS
  17:Middlewares/Third_Party/FreeRTOS/Source/timers.c ****  * FOR A PARTICULAR PURPOSE AND NONINFRINGEMENT. IN NO EVENT SHALL THE AUTHORS OR
  18:Middlewares/Third_Party/FreeRTOS/Source/timers.c ****  * COPYRIGHT HOLDERS BE LIABLE FOR ANY CLAIM, DAMAGES OR OTHER LIABILITY, WHETHER
  19:Middlewares/Third_Party/FreeRTOS/Source/timers.c ****  * IN AN ACTION OF CONTRACT, TORT OR OTHERWISE, ARISING FROM, OUT OF OR IN
  20:Middlewares/Third_Party/FreeRTOS/Source/timers.c ****  * CONNECTION WITH THE SOFTWARE OR THE USE OR OTHER DEALINGS IN THE SOFTWARE.
  21:Middlewares/Third_Party/FreeRTOS/Source/timers.c ****  *
  22:Middlewares/Third_Party/FreeRTOS/Source/timers.c ****  * http://www.FreeRTOS.org
  23:Middlewares/Third_Party/FreeRTOS/Source/timers.c ****  * http://aws.amazon.com/freertos
  24:Middlewares/Third_Party/FreeRTOS/Source/timers.c ****  *
  25:Middlewares/Third_Party/FreeRTOS/Source/timers.c ****  * 1 tab == 4 spaces!
  26:Middlewares/Third_Party/FreeRTOS/Source/timers.c ****  */
  27:Middlewares/Third_Party/FreeRTOS/Source/timers.c **** 
  28:Middlewares/Third_Party/FreeRTOS/Source/timers.c **** /* Standard includes. */
  29:Middlewares/Third_Party/FreeRTOS/Source/timers.c **** #include <stdlib.h>
  30:Middlewares/Third_Party/FreeRTOS/Source/timers.c **** 
ARM GAS  C:\msys64\tmp\ccn4BJFy.s 			page 2


  31:Middlewares/Third_Party/FreeRTOS/Source/timers.c **** /* Defining MPU_WRAPPERS_INCLUDED_FROM_API_FILE prevents task.h from redefining
  32:Middlewares/Third_Party/FreeRTOS/Source/timers.c **** all the API functions to use the MPU wrappers.  That should only be done when
  33:Middlewares/Third_Party/FreeRTOS/Source/timers.c **** task.h is included from an application file. */
  34:Middlewares/Third_Party/FreeRTOS/Source/timers.c **** #define MPU_WRAPPERS_INCLUDED_FROM_API_FILE
  35:Middlewares/Third_Party/FreeRTOS/Source/timers.c **** 
  36:Middlewares/Third_Party/FreeRTOS/Source/timers.c **** #include "FreeRTOS.h"
  37:Middlewares/Third_Party/FreeRTOS/Source/timers.c **** #include "task.h"
  38:Middlewares/Third_Party/FreeRTOS/Source/timers.c **** #include "queue.h"
  39:Middlewares/Third_Party/FreeRTOS/Source/timers.c **** #include "timers.h"
  40:Middlewares/Third_Party/FreeRTOS/Source/timers.c **** 
  41:Middlewares/Third_Party/FreeRTOS/Source/timers.c **** #if ( INCLUDE_xTimerPendFunctionCall == 1 ) && ( configUSE_TIMERS == 0 )
  42:Middlewares/Third_Party/FreeRTOS/Source/timers.c **** 	#error configUSE_TIMERS must be set to 1 to make the xTimerPendFunctionCall() function available.
  43:Middlewares/Third_Party/FreeRTOS/Source/timers.c **** #endif
  44:Middlewares/Third_Party/FreeRTOS/Source/timers.c **** 
  45:Middlewares/Third_Party/FreeRTOS/Source/timers.c **** /* Lint e9021, e961 and e750 are suppressed as a MISRA exception justified
  46:Middlewares/Third_Party/FreeRTOS/Source/timers.c **** because the MPU ports require MPU_WRAPPERS_INCLUDED_FROM_API_FILE to be defined
  47:Middlewares/Third_Party/FreeRTOS/Source/timers.c **** for the header files above, but not in this file, in order to generate the
  48:Middlewares/Third_Party/FreeRTOS/Source/timers.c **** correct privileged Vs unprivileged linkage and placement. */
  49:Middlewares/Third_Party/FreeRTOS/Source/timers.c **** #undef MPU_WRAPPERS_INCLUDED_FROM_API_FILE /*lint !e9021 !e961 !e750. */
  50:Middlewares/Third_Party/FreeRTOS/Source/timers.c **** 
  51:Middlewares/Third_Party/FreeRTOS/Source/timers.c **** 
  52:Middlewares/Third_Party/FreeRTOS/Source/timers.c **** /* This entire source file will be skipped if the application is not configured
  53:Middlewares/Third_Party/FreeRTOS/Source/timers.c **** to include software timer functionality.  This #if is closed at the very bottom
  54:Middlewares/Third_Party/FreeRTOS/Source/timers.c **** of this file.  If you want to include software timer functionality then ensure
  55:Middlewares/Third_Party/FreeRTOS/Source/timers.c **** configUSE_TIMERS is set to 1 in FreeRTOSConfig.h. */
  56:Middlewares/Third_Party/FreeRTOS/Source/timers.c **** #if ( configUSE_TIMERS == 1 )
  57:Middlewares/Third_Party/FreeRTOS/Source/timers.c **** 
  58:Middlewares/Third_Party/FreeRTOS/Source/timers.c **** /* Misc definitions. */
  59:Middlewares/Third_Party/FreeRTOS/Source/timers.c **** #define tmrNO_DELAY		( TickType_t ) 0U
  60:Middlewares/Third_Party/FreeRTOS/Source/timers.c **** 
  61:Middlewares/Third_Party/FreeRTOS/Source/timers.c **** /* The name assigned to the timer service task.  This can be overridden by
  62:Middlewares/Third_Party/FreeRTOS/Source/timers.c **** defining trmTIMER_SERVICE_TASK_NAME in FreeRTOSConfig.h. */
  63:Middlewares/Third_Party/FreeRTOS/Source/timers.c **** #ifndef configTIMER_SERVICE_TASK_NAME
  64:Middlewares/Third_Party/FreeRTOS/Source/timers.c **** 	#define configTIMER_SERVICE_TASK_NAME "Tmr Svc"
  65:Middlewares/Third_Party/FreeRTOS/Source/timers.c **** #endif
  66:Middlewares/Third_Party/FreeRTOS/Source/timers.c **** 
  67:Middlewares/Third_Party/FreeRTOS/Source/timers.c **** /* Bit definitions used in the ucStatus member of a timer structure. */
  68:Middlewares/Third_Party/FreeRTOS/Source/timers.c **** #define tmrSTATUS_IS_ACTIVE					( ( uint8_t ) 0x01 )
  69:Middlewares/Third_Party/FreeRTOS/Source/timers.c **** #define tmrSTATUS_IS_STATICALLY_ALLOCATED	( ( uint8_t ) 0x02 )
  70:Middlewares/Third_Party/FreeRTOS/Source/timers.c **** #define tmrSTATUS_IS_AUTORELOAD				( ( uint8_t ) 0x04 )
  71:Middlewares/Third_Party/FreeRTOS/Source/timers.c **** 
  72:Middlewares/Third_Party/FreeRTOS/Source/timers.c **** /* The definition of the timers themselves. */
  73:Middlewares/Third_Party/FreeRTOS/Source/timers.c **** typedef struct tmrTimerControl /* The old naming convention is used to prevent breaking kernel awar
  74:Middlewares/Third_Party/FreeRTOS/Source/timers.c **** {
  75:Middlewares/Third_Party/FreeRTOS/Source/timers.c **** 	const char				*pcTimerName;		/*<< Text name.  This is not used by the kernel, it is included simpl
  76:Middlewares/Third_Party/FreeRTOS/Source/timers.c **** 	ListItem_t				xTimerListItem;		/*<< Standard linked list item as used by all kernel features for e
  77:Middlewares/Third_Party/FreeRTOS/Source/timers.c **** 	TickType_t				xTimerPeriodInTicks;/*<< How quickly and often the timer expires. */
  78:Middlewares/Third_Party/FreeRTOS/Source/timers.c **** 	void 					*pvTimerID;			/*<< An ID to identify the timer.  This allows the timer to be identified 
  79:Middlewares/Third_Party/FreeRTOS/Source/timers.c **** 	TimerCallbackFunction_t	pxCallbackFunction;	/*<< The function that will be called when the timer e
  80:Middlewares/Third_Party/FreeRTOS/Source/timers.c **** 	#if( configUSE_TRACE_FACILITY == 1 )
  81:Middlewares/Third_Party/FreeRTOS/Source/timers.c **** 		UBaseType_t			uxTimerNumber;		/*<< An ID assigned by trace tools such as FreeRTOS+Trace */
  82:Middlewares/Third_Party/FreeRTOS/Source/timers.c **** 	#endif
  83:Middlewares/Third_Party/FreeRTOS/Source/timers.c **** 	uint8_t 				ucStatus;			/*<< Holds bits to say if the timer was statically allocated or not, and i
  84:Middlewares/Third_Party/FreeRTOS/Source/timers.c **** } xTIMER;
  85:Middlewares/Third_Party/FreeRTOS/Source/timers.c **** 
  86:Middlewares/Third_Party/FreeRTOS/Source/timers.c **** /* The old xTIMER name is maintained above then typedefed to the new Timer_t
  87:Middlewares/Third_Party/FreeRTOS/Source/timers.c **** name below to enable the use of older kernel aware debuggers. */
ARM GAS  C:\msys64\tmp\ccn4BJFy.s 			page 3


  88:Middlewares/Third_Party/FreeRTOS/Source/timers.c **** typedef xTIMER Timer_t;
  89:Middlewares/Third_Party/FreeRTOS/Source/timers.c **** 
  90:Middlewares/Third_Party/FreeRTOS/Source/timers.c **** /* The definition of messages that can be sent and received on the timer queue.
  91:Middlewares/Third_Party/FreeRTOS/Source/timers.c **** Two types of message can be queued - messages that manipulate a software timer,
  92:Middlewares/Third_Party/FreeRTOS/Source/timers.c **** and messages that request the execution of a non-timer related callback.  The
  93:Middlewares/Third_Party/FreeRTOS/Source/timers.c **** two message types are defined in two separate structures, xTimerParametersType
  94:Middlewares/Third_Party/FreeRTOS/Source/timers.c **** and xCallbackParametersType respectively. */
  95:Middlewares/Third_Party/FreeRTOS/Source/timers.c **** typedef struct tmrTimerParameters
  96:Middlewares/Third_Party/FreeRTOS/Source/timers.c **** {
  97:Middlewares/Third_Party/FreeRTOS/Source/timers.c **** 	TickType_t			xMessageValue;		/*<< An optional value used by a subset of commands, for example, whe
  98:Middlewares/Third_Party/FreeRTOS/Source/timers.c **** 	Timer_t *			pxTimer;			/*<< The timer to which the command will be applied. */
  99:Middlewares/Third_Party/FreeRTOS/Source/timers.c **** } TimerParameter_t;
 100:Middlewares/Third_Party/FreeRTOS/Source/timers.c **** 
 101:Middlewares/Third_Party/FreeRTOS/Source/timers.c **** 
 102:Middlewares/Third_Party/FreeRTOS/Source/timers.c **** typedef struct tmrCallbackParameters
 103:Middlewares/Third_Party/FreeRTOS/Source/timers.c **** {
 104:Middlewares/Third_Party/FreeRTOS/Source/timers.c **** 	PendedFunction_t	pxCallbackFunction;	/* << The callback function to execute. */
 105:Middlewares/Third_Party/FreeRTOS/Source/timers.c **** 	void *pvParameter1;						/* << The value that will be used as the callback functions first paramet
 106:Middlewares/Third_Party/FreeRTOS/Source/timers.c **** 	uint32_t ulParameter2;					/* << The value that will be used as the callback functions second para
 107:Middlewares/Third_Party/FreeRTOS/Source/timers.c **** } CallbackParameters_t;
 108:Middlewares/Third_Party/FreeRTOS/Source/timers.c **** 
 109:Middlewares/Third_Party/FreeRTOS/Source/timers.c **** /* The structure that contains the two message types, along with an identifier
 110:Middlewares/Third_Party/FreeRTOS/Source/timers.c **** that is used to determine which message type is valid. */
 111:Middlewares/Third_Party/FreeRTOS/Source/timers.c **** typedef struct tmrTimerQueueMessage
 112:Middlewares/Third_Party/FreeRTOS/Source/timers.c **** {
 113:Middlewares/Third_Party/FreeRTOS/Source/timers.c **** 	BaseType_t			xMessageID;			/*<< The command being sent to the timer service task. */
 114:Middlewares/Third_Party/FreeRTOS/Source/timers.c **** 	union
 115:Middlewares/Third_Party/FreeRTOS/Source/timers.c **** 	{
 116:Middlewares/Third_Party/FreeRTOS/Source/timers.c **** 		TimerParameter_t xTimerParameters;
 117:Middlewares/Third_Party/FreeRTOS/Source/timers.c **** 
 118:Middlewares/Third_Party/FreeRTOS/Source/timers.c **** 		/* Don't include xCallbackParameters if it is not going to be used as
 119:Middlewares/Third_Party/FreeRTOS/Source/timers.c **** 		it makes the structure (and therefore the timer queue) larger. */
 120:Middlewares/Third_Party/FreeRTOS/Source/timers.c **** 		#if ( INCLUDE_xTimerPendFunctionCall == 1 )
 121:Middlewares/Third_Party/FreeRTOS/Source/timers.c **** 			CallbackParameters_t xCallbackParameters;
 122:Middlewares/Third_Party/FreeRTOS/Source/timers.c **** 		#endif /* INCLUDE_xTimerPendFunctionCall */
 123:Middlewares/Third_Party/FreeRTOS/Source/timers.c **** 	} u;
 124:Middlewares/Third_Party/FreeRTOS/Source/timers.c **** } DaemonTaskMessage_t;
 125:Middlewares/Third_Party/FreeRTOS/Source/timers.c **** 
 126:Middlewares/Third_Party/FreeRTOS/Source/timers.c **** /*lint -save -e956 A manual analysis and inspection has been used to determine
 127:Middlewares/Third_Party/FreeRTOS/Source/timers.c **** which static variables must be declared volatile. */
 128:Middlewares/Third_Party/FreeRTOS/Source/timers.c **** 
 129:Middlewares/Third_Party/FreeRTOS/Source/timers.c **** /* The list in which active timers are stored.  Timers are referenced in expire
 130:Middlewares/Third_Party/FreeRTOS/Source/timers.c **** time order, with the nearest expiry time at the front of the list.  Only the
 131:Middlewares/Third_Party/FreeRTOS/Source/timers.c **** timer service task is allowed to access these lists.
 132:Middlewares/Third_Party/FreeRTOS/Source/timers.c **** xActiveTimerList1 and xActiveTimerList2 could be at function scope but that
 133:Middlewares/Third_Party/FreeRTOS/Source/timers.c **** breaks some kernel aware debuggers, and debuggers that reply on removing the
 134:Middlewares/Third_Party/FreeRTOS/Source/timers.c **** static qualifier. */
 135:Middlewares/Third_Party/FreeRTOS/Source/timers.c **** PRIVILEGED_DATA static List_t xActiveTimerList1 = { 0 };
 136:Middlewares/Third_Party/FreeRTOS/Source/timers.c **** PRIVILEGED_DATA static List_t xActiveTimerList2 = { 0 };
 137:Middlewares/Third_Party/FreeRTOS/Source/timers.c **** PRIVILEGED_DATA static List_t *pxCurrentTimerList = NULL;
 138:Middlewares/Third_Party/FreeRTOS/Source/timers.c **** PRIVILEGED_DATA static List_t *pxOverflowTimerList = NULL;
 139:Middlewares/Third_Party/FreeRTOS/Source/timers.c **** 
 140:Middlewares/Third_Party/FreeRTOS/Source/timers.c **** /* A queue that is used to send commands to the timer service task. */
 141:Middlewares/Third_Party/FreeRTOS/Source/timers.c **** PRIVILEGED_DATA static QueueHandle_t xTimerQueue = NULL;
 142:Middlewares/Third_Party/FreeRTOS/Source/timers.c **** PRIVILEGED_DATA static TaskHandle_t xTimerTaskHandle = NULL;
 143:Middlewares/Third_Party/FreeRTOS/Source/timers.c **** 
 144:Middlewares/Third_Party/FreeRTOS/Source/timers.c **** /*lint -restore */
ARM GAS  C:\msys64\tmp\ccn4BJFy.s 			page 4


 145:Middlewares/Third_Party/FreeRTOS/Source/timers.c **** 
 146:Middlewares/Third_Party/FreeRTOS/Source/timers.c **** /*-----------------------------------------------------------*/
 147:Middlewares/Third_Party/FreeRTOS/Source/timers.c **** 
 148:Middlewares/Third_Party/FreeRTOS/Source/timers.c **** #if( configSUPPORT_STATIC_ALLOCATION == 1 )
 149:Middlewares/Third_Party/FreeRTOS/Source/timers.c **** 
 150:Middlewares/Third_Party/FreeRTOS/Source/timers.c **** 	/* If static allocation is supported then the application must provide the
 151:Middlewares/Third_Party/FreeRTOS/Source/timers.c **** 	following callback function - which enables the application to optionally
 152:Middlewares/Third_Party/FreeRTOS/Source/timers.c **** 	provide the memory that will be used by the timer task as the task's stack
 153:Middlewares/Third_Party/FreeRTOS/Source/timers.c **** 	and TCB. */
 154:Middlewares/Third_Party/FreeRTOS/Source/timers.c **** 	extern void vApplicationGetTimerTaskMemory( StaticTask_t **ppxTimerTaskTCBBuffer, StackType_t **pp
 155:Middlewares/Third_Party/FreeRTOS/Source/timers.c **** 
 156:Middlewares/Third_Party/FreeRTOS/Source/timers.c **** #endif
 157:Middlewares/Third_Party/FreeRTOS/Source/timers.c **** 
 158:Middlewares/Third_Party/FreeRTOS/Source/timers.c **** /*
 159:Middlewares/Third_Party/FreeRTOS/Source/timers.c ****  * Initialise the infrastructure used by the timer service task if it has not
 160:Middlewares/Third_Party/FreeRTOS/Source/timers.c ****  * been initialised already.
 161:Middlewares/Third_Party/FreeRTOS/Source/timers.c ****  */
 162:Middlewares/Third_Party/FreeRTOS/Source/timers.c **** static void prvCheckForValidListAndQueue( void ) PRIVILEGED_FUNCTION;
 163:Middlewares/Third_Party/FreeRTOS/Source/timers.c **** 
 164:Middlewares/Third_Party/FreeRTOS/Source/timers.c **** /*
 165:Middlewares/Third_Party/FreeRTOS/Source/timers.c ****  * The timer service task (daemon).  Timer functionality is controlled by this
 166:Middlewares/Third_Party/FreeRTOS/Source/timers.c ****  * task.  Other tasks communicate with the timer service task using the
 167:Middlewares/Third_Party/FreeRTOS/Source/timers.c ****  * xTimerQueue queue.
 168:Middlewares/Third_Party/FreeRTOS/Source/timers.c ****  */
 169:Middlewares/Third_Party/FreeRTOS/Source/timers.c **** static portTASK_FUNCTION_PROTO( prvTimerTask, pvParameters ) PRIVILEGED_FUNCTION;
 170:Middlewares/Third_Party/FreeRTOS/Source/timers.c **** 
 171:Middlewares/Third_Party/FreeRTOS/Source/timers.c **** /*
 172:Middlewares/Third_Party/FreeRTOS/Source/timers.c ****  * Called by the timer service task to interpret and process a command it
 173:Middlewares/Third_Party/FreeRTOS/Source/timers.c ****  * received on the timer queue.
 174:Middlewares/Third_Party/FreeRTOS/Source/timers.c ****  */
 175:Middlewares/Third_Party/FreeRTOS/Source/timers.c **** static void prvProcessReceivedCommands( void ) PRIVILEGED_FUNCTION;
 176:Middlewares/Third_Party/FreeRTOS/Source/timers.c **** 
 177:Middlewares/Third_Party/FreeRTOS/Source/timers.c **** /*
 178:Middlewares/Third_Party/FreeRTOS/Source/timers.c ****  * Insert the timer into either xActiveTimerList1, or xActiveTimerList2,
 179:Middlewares/Third_Party/FreeRTOS/Source/timers.c ****  * depending on if the expire time causes a timer counter overflow.
 180:Middlewares/Third_Party/FreeRTOS/Source/timers.c ****  */
 181:Middlewares/Third_Party/FreeRTOS/Source/timers.c **** static BaseType_t prvInsertTimerInActiveList( Timer_t * const pxTimer, const TickType_t xNextExpiry
 182:Middlewares/Third_Party/FreeRTOS/Source/timers.c **** 
 183:Middlewares/Third_Party/FreeRTOS/Source/timers.c **** /*
 184:Middlewares/Third_Party/FreeRTOS/Source/timers.c ****  * An active timer has reached its expire time.  Reload the timer if it is an
 185:Middlewares/Third_Party/FreeRTOS/Source/timers.c ****  * auto reload timer, then call its callback.
 186:Middlewares/Third_Party/FreeRTOS/Source/timers.c ****  */
 187:Middlewares/Third_Party/FreeRTOS/Source/timers.c **** static void prvProcessExpiredTimer( const TickType_t xNextExpireTime, const TickType_t xTimeNow ) P
 188:Middlewares/Third_Party/FreeRTOS/Source/timers.c **** 
 189:Middlewares/Third_Party/FreeRTOS/Source/timers.c **** /*
 190:Middlewares/Third_Party/FreeRTOS/Source/timers.c ****  * The tick count has overflowed.  Switch the timer lists after ensuring the
 191:Middlewares/Third_Party/FreeRTOS/Source/timers.c ****  * current timer list does not still reference some timers.
 192:Middlewares/Third_Party/FreeRTOS/Source/timers.c ****  */
 193:Middlewares/Third_Party/FreeRTOS/Source/timers.c **** static void prvSwitchTimerLists( void ) PRIVILEGED_FUNCTION;
 194:Middlewares/Third_Party/FreeRTOS/Source/timers.c **** 
 195:Middlewares/Third_Party/FreeRTOS/Source/timers.c **** /*
 196:Middlewares/Third_Party/FreeRTOS/Source/timers.c ****  * Obtain the current tick count, setting *pxTimerListsWereSwitched to pdTRUE
 197:Middlewares/Third_Party/FreeRTOS/Source/timers.c ****  * if a tick count overflow occurred since prvSampleTimeNow() was last called.
 198:Middlewares/Third_Party/FreeRTOS/Source/timers.c ****  */
 199:Middlewares/Third_Party/FreeRTOS/Source/timers.c **** static TickType_t prvSampleTimeNow( BaseType_t * const pxTimerListsWereSwitched ) PRIVILEGED_FUNCTI
 200:Middlewares/Third_Party/FreeRTOS/Source/timers.c **** 
 201:Middlewares/Third_Party/FreeRTOS/Source/timers.c **** /*
ARM GAS  C:\msys64\tmp\ccn4BJFy.s 			page 5


 202:Middlewares/Third_Party/FreeRTOS/Source/timers.c ****  * If the timer list contains any active timers then return the expire time of
 203:Middlewares/Third_Party/FreeRTOS/Source/timers.c ****  * the timer that will expire first and set *pxListWasEmpty to false.  If the
 204:Middlewares/Third_Party/FreeRTOS/Source/timers.c ****  * timer list does not contain any timers then return 0 and set *pxListWasEmpty
 205:Middlewares/Third_Party/FreeRTOS/Source/timers.c ****  * to pdTRUE.
 206:Middlewares/Third_Party/FreeRTOS/Source/timers.c ****  */
 207:Middlewares/Third_Party/FreeRTOS/Source/timers.c **** static TickType_t prvGetNextExpireTime( BaseType_t * const pxListWasEmpty ) PRIVILEGED_FUNCTION;
 208:Middlewares/Third_Party/FreeRTOS/Source/timers.c **** 
 209:Middlewares/Third_Party/FreeRTOS/Source/timers.c **** /*
 210:Middlewares/Third_Party/FreeRTOS/Source/timers.c ****  * If a timer has expired, process it.  Otherwise, block the timer service task
 211:Middlewares/Third_Party/FreeRTOS/Source/timers.c ****  * until either a timer does expire or a command is received.
 212:Middlewares/Third_Party/FreeRTOS/Source/timers.c ****  */
 213:Middlewares/Third_Party/FreeRTOS/Source/timers.c **** static void prvProcessTimerOrBlockTask( const TickType_t xNextExpireTime, BaseType_t xListWasEmpty 
 214:Middlewares/Third_Party/FreeRTOS/Source/timers.c **** 
 215:Middlewares/Third_Party/FreeRTOS/Source/timers.c **** /*
 216:Middlewares/Third_Party/FreeRTOS/Source/timers.c ****  * Called after a Timer_t structure has been allocated either statically or
 217:Middlewares/Third_Party/FreeRTOS/Source/timers.c ****  * dynamically to fill in the structure's members.
 218:Middlewares/Third_Party/FreeRTOS/Source/timers.c ****  */
 219:Middlewares/Third_Party/FreeRTOS/Source/timers.c **** static void prvInitialiseNewTimer(	const char * const pcTimerName,			/*lint !e971 Unqualified char 
 220:Middlewares/Third_Party/FreeRTOS/Source/timers.c **** 									const TickType_t xTimerPeriodInTicks,
 221:Middlewares/Third_Party/FreeRTOS/Source/timers.c **** 									const UBaseType_t uxAutoReload,
 222:Middlewares/Third_Party/FreeRTOS/Source/timers.c **** 									void * const pvTimerID,
 223:Middlewares/Third_Party/FreeRTOS/Source/timers.c **** 									TimerCallbackFunction_t pxCallbackFunction,
 224:Middlewares/Third_Party/FreeRTOS/Source/timers.c **** 									Timer_t *pxNewTimer ) PRIVILEGED_FUNCTION;
 225:Middlewares/Third_Party/FreeRTOS/Source/timers.c **** /*-----------------------------------------------------------*/
 226:Middlewares/Third_Party/FreeRTOS/Source/timers.c **** 
 227:Middlewares/Third_Party/FreeRTOS/Source/timers.c **** BaseType_t xTimerCreateTimerTask( void )
 228:Middlewares/Third_Party/FreeRTOS/Source/timers.c **** {
 229:Middlewares/Third_Party/FreeRTOS/Source/timers.c **** BaseType_t xReturn = pdFAIL;
 230:Middlewares/Third_Party/FreeRTOS/Source/timers.c **** 
 231:Middlewares/Third_Party/FreeRTOS/Source/timers.c **** 	/* This function is called when the scheduler is started if
 232:Middlewares/Third_Party/FreeRTOS/Source/timers.c **** 	configUSE_TIMERS is set to 1.  Check that the infrastructure used by the
 233:Middlewares/Third_Party/FreeRTOS/Source/timers.c **** 	timer service task has been created/initialised.  If timers have already
 234:Middlewares/Third_Party/FreeRTOS/Source/timers.c **** 	been created then the initialisation will already have been performed. */
 235:Middlewares/Third_Party/FreeRTOS/Source/timers.c **** 	prvCheckForValidListAndQueue();
 236:Middlewares/Third_Party/FreeRTOS/Source/timers.c **** 
 237:Middlewares/Third_Party/FreeRTOS/Source/timers.c **** 	if( xTimerQueue != NULL )
 238:Middlewares/Third_Party/FreeRTOS/Source/timers.c **** 	{
 239:Middlewares/Third_Party/FreeRTOS/Source/timers.c **** 		#if( configSUPPORT_STATIC_ALLOCATION == 1 )
 240:Middlewares/Third_Party/FreeRTOS/Source/timers.c **** 		{
 241:Middlewares/Third_Party/FreeRTOS/Source/timers.c **** 			StaticTask_t *pxTimerTaskTCBBuffer = NULL;
 242:Middlewares/Third_Party/FreeRTOS/Source/timers.c **** 			StackType_t *pxTimerTaskStackBuffer = NULL;
 243:Middlewares/Third_Party/FreeRTOS/Source/timers.c **** 			uint32_t ulTimerTaskStackSize;
 244:Middlewares/Third_Party/FreeRTOS/Source/timers.c **** 
 245:Middlewares/Third_Party/FreeRTOS/Source/timers.c **** 			vApplicationGetTimerTaskMemory( &pxTimerTaskTCBBuffer, &pxTimerTaskStackBuffer, &ulTimerTaskStac
 246:Middlewares/Third_Party/FreeRTOS/Source/timers.c **** 			xTimerTaskHandle = xTaskCreateStatic(	prvTimerTask,
 247:Middlewares/Third_Party/FreeRTOS/Source/timers.c **** 													configTIMER_SERVICE_TASK_NAME,
 248:Middlewares/Third_Party/FreeRTOS/Source/timers.c **** 													ulTimerTaskStackSize,
 249:Middlewares/Third_Party/FreeRTOS/Source/timers.c **** 													NULL,
 250:Middlewares/Third_Party/FreeRTOS/Source/timers.c **** 													( ( UBaseType_t ) configTIMER_TASK_PRIORITY ) | portPRIVILEGE_BIT,
 251:Middlewares/Third_Party/FreeRTOS/Source/timers.c **** 													pxTimerTaskStackBuffer,
 252:Middlewares/Third_Party/FreeRTOS/Source/timers.c **** 													pxTimerTaskTCBBuffer );
 253:Middlewares/Third_Party/FreeRTOS/Source/timers.c **** 
 254:Middlewares/Third_Party/FreeRTOS/Source/timers.c **** 			if( xTimerTaskHandle != NULL )
 255:Middlewares/Third_Party/FreeRTOS/Source/timers.c **** 			{
 256:Middlewares/Third_Party/FreeRTOS/Source/timers.c **** 				xReturn = pdPASS;
 257:Middlewares/Third_Party/FreeRTOS/Source/timers.c **** 			}
 258:Middlewares/Third_Party/FreeRTOS/Source/timers.c **** 		}
ARM GAS  C:\msys64\tmp\ccn4BJFy.s 			page 6


 259:Middlewares/Third_Party/FreeRTOS/Source/timers.c **** 		#else
 260:Middlewares/Third_Party/FreeRTOS/Source/timers.c **** 		{
 261:Middlewares/Third_Party/FreeRTOS/Source/timers.c **** 			xReturn = xTaskCreate(	prvTimerTask,
 262:Middlewares/Third_Party/FreeRTOS/Source/timers.c **** 									configTIMER_SERVICE_TASK_NAME,
 263:Middlewares/Third_Party/FreeRTOS/Source/timers.c **** 									configTIMER_TASK_STACK_DEPTH,
 264:Middlewares/Third_Party/FreeRTOS/Source/timers.c **** 									NULL,
 265:Middlewares/Third_Party/FreeRTOS/Source/timers.c **** 									( ( UBaseType_t ) configTIMER_TASK_PRIORITY ) | portPRIVILEGE_BIT,
 266:Middlewares/Third_Party/FreeRTOS/Source/timers.c **** 									&xTimerTaskHandle );
 267:Middlewares/Third_Party/FreeRTOS/Source/timers.c **** 		}
 268:Middlewares/Third_Party/FreeRTOS/Source/timers.c **** 		#endif /* configSUPPORT_STATIC_ALLOCATION */
 269:Middlewares/Third_Party/FreeRTOS/Source/timers.c **** 	}
 270:Middlewares/Third_Party/FreeRTOS/Source/timers.c **** 	else
 271:Middlewares/Third_Party/FreeRTOS/Source/timers.c **** 	{
 272:Middlewares/Third_Party/FreeRTOS/Source/timers.c **** 		mtCOVERAGE_TEST_MARKER();
 273:Middlewares/Third_Party/FreeRTOS/Source/timers.c **** 	}
 274:Middlewares/Third_Party/FreeRTOS/Source/timers.c **** 
 275:Middlewares/Third_Party/FreeRTOS/Source/timers.c **** 	configASSERT( xReturn );
 276:Middlewares/Third_Party/FreeRTOS/Source/timers.c **** 	return xReturn;
 277:Middlewares/Third_Party/FreeRTOS/Source/timers.c **** }
 278:Middlewares/Third_Party/FreeRTOS/Source/timers.c **** /*-----------------------------------------------------------*/
 279:Middlewares/Third_Party/FreeRTOS/Source/timers.c **** 
 280:Middlewares/Third_Party/FreeRTOS/Source/timers.c **** #if( configSUPPORT_DYNAMIC_ALLOCATION == 1 )
 281:Middlewares/Third_Party/FreeRTOS/Source/timers.c **** 
 282:Middlewares/Third_Party/FreeRTOS/Source/timers.c **** 	TimerHandle_t xTimerCreate(	const char * const pcTimerName,			/*lint !e971 Unqualified char types 
 283:Middlewares/Third_Party/FreeRTOS/Source/timers.c **** 								const TickType_t xTimerPeriodInTicks,
 284:Middlewares/Third_Party/FreeRTOS/Source/timers.c **** 								const UBaseType_t uxAutoReload,
 285:Middlewares/Third_Party/FreeRTOS/Source/timers.c **** 								void * const pvTimerID,
 286:Middlewares/Third_Party/FreeRTOS/Source/timers.c **** 								TimerCallbackFunction_t pxCallbackFunction )
 287:Middlewares/Third_Party/FreeRTOS/Source/timers.c **** 	{
 288:Middlewares/Third_Party/FreeRTOS/Source/timers.c **** 	Timer_t *pxNewTimer;
 289:Middlewares/Third_Party/FreeRTOS/Source/timers.c **** 
 290:Middlewares/Third_Party/FreeRTOS/Source/timers.c **** 		pxNewTimer = ( Timer_t * ) pvPortMalloc( sizeof( Timer_t ) ); /*lint !e9087 !e9079 All values ret
 291:Middlewares/Third_Party/FreeRTOS/Source/timers.c **** 
 292:Middlewares/Third_Party/FreeRTOS/Source/timers.c **** 		if( pxNewTimer != NULL )
 293:Middlewares/Third_Party/FreeRTOS/Source/timers.c **** 		{
 294:Middlewares/Third_Party/FreeRTOS/Source/timers.c **** 			/* Status is thus far zero as the timer is not created statically
 295:Middlewares/Third_Party/FreeRTOS/Source/timers.c **** 			and has not been started.  The autoreload bit may get set in
 296:Middlewares/Third_Party/FreeRTOS/Source/timers.c **** 			prvInitialiseNewTimer. */
 297:Middlewares/Third_Party/FreeRTOS/Source/timers.c **** 			pxNewTimer->ucStatus = 0x00;
 298:Middlewares/Third_Party/FreeRTOS/Source/timers.c **** 			prvInitialiseNewTimer( pcTimerName, xTimerPeriodInTicks, uxAutoReload, pvTimerID, pxCallbackFunc
 299:Middlewares/Third_Party/FreeRTOS/Source/timers.c **** 		}
 300:Middlewares/Third_Party/FreeRTOS/Source/timers.c **** 
 301:Middlewares/Third_Party/FreeRTOS/Source/timers.c **** 		return pxNewTimer;
 302:Middlewares/Third_Party/FreeRTOS/Source/timers.c **** 	}
 303:Middlewares/Third_Party/FreeRTOS/Source/timers.c **** 
 304:Middlewares/Third_Party/FreeRTOS/Source/timers.c **** #endif /* configSUPPORT_DYNAMIC_ALLOCATION */
 305:Middlewares/Third_Party/FreeRTOS/Source/timers.c **** /*-----------------------------------------------------------*/
 306:Middlewares/Third_Party/FreeRTOS/Source/timers.c **** 
 307:Middlewares/Third_Party/FreeRTOS/Source/timers.c **** #if( configSUPPORT_STATIC_ALLOCATION == 1 )
 308:Middlewares/Third_Party/FreeRTOS/Source/timers.c **** 
 309:Middlewares/Third_Party/FreeRTOS/Source/timers.c **** 	TimerHandle_t xTimerCreateStatic(	const char * const pcTimerName,		/*lint !e971 Unqualified char t
 310:Middlewares/Third_Party/FreeRTOS/Source/timers.c **** 										const TickType_t xTimerPeriodInTicks,
 311:Middlewares/Third_Party/FreeRTOS/Source/timers.c **** 										const UBaseType_t uxAutoReload,
 312:Middlewares/Third_Party/FreeRTOS/Source/timers.c **** 										void * const pvTimerID,
 313:Middlewares/Third_Party/FreeRTOS/Source/timers.c **** 										TimerCallbackFunction_t pxCallbackFunction,
 314:Middlewares/Third_Party/FreeRTOS/Source/timers.c **** 										StaticTimer_t *pxTimerBuffer )
 315:Middlewares/Third_Party/FreeRTOS/Source/timers.c **** 	{
ARM GAS  C:\msys64\tmp\ccn4BJFy.s 			page 7


 316:Middlewares/Third_Party/FreeRTOS/Source/timers.c **** 	Timer_t *pxNewTimer;
 317:Middlewares/Third_Party/FreeRTOS/Source/timers.c **** 
 318:Middlewares/Third_Party/FreeRTOS/Source/timers.c **** 		#if( configASSERT_DEFINED == 1 )
 319:Middlewares/Third_Party/FreeRTOS/Source/timers.c **** 		{
 320:Middlewares/Third_Party/FreeRTOS/Source/timers.c **** 			/* Sanity check that the size of the structure used to declare a
 321:Middlewares/Third_Party/FreeRTOS/Source/timers.c **** 			variable of type StaticTimer_t equals the size of the real timer
 322:Middlewares/Third_Party/FreeRTOS/Source/timers.c **** 			structure. */
 323:Middlewares/Third_Party/FreeRTOS/Source/timers.c **** 			volatile size_t xSize = sizeof( StaticTimer_t );
 324:Middlewares/Third_Party/FreeRTOS/Source/timers.c **** 			configASSERT( xSize == sizeof( Timer_t ) );
 325:Middlewares/Third_Party/FreeRTOS/Source/timers.c **** 			( void ) xSize; /* Keeps lint quiet when configASSERT() is not defined. */
 326:Middlewares/Third_Party/FreeRTOS/Source/timers.c **** 		}
 327:Middlewares/Third_Party/FreeRTOS/Source/timers.c **** 		#endif /* configASSERT_DEFINED */
 328:Middlewares/Third_Party/FreeRTOS/Source/timers.c **** 
 329:Middlewares/Third_Party/FreeRTOS/Source/timers.c **** 		/* A pointer to a StaticTimer_t structure MUST be provided, use it. */
 330:Middlewares/Third_Party/FreeRTOS/Source/timers.c **** 		configASSERT( pxTimerBuffer );
 331:Middlewares/Third_Party/FreeRTOS/Source/timers.c **** 		pxNewTimer = ( Timer_t * ) pxTimerBuffer; /*lint !e740 !e9087 StaticTimer_t is a pointer to a Tim
 332:Middlewares/Third_Party/FreeRTOS/Source/timers.c **** 
 333:Middlewares/Third_Party/FreeRTOS/Source/timers.c **** 		if( pxNewTimer != NULL )
 334:Middlewares/Third_Party/FreeRTOS/Source/timers.c **** 		{
 335:Middlewares/Third_Party/FreeRTOS/Source/timers.c **** 			/* Timers can be created statically or dynamically so note this
 336:Middlewares/Third_Party/FreeRTOS/Source/timers.c **** 			timer was created statically in case it is later deleted.  The
 337:Middlewares/Third_Party/FreeRTOS/Source/timers.c **** 			autoreload bit may get set in prvInitialiseNewTimer(). */
 338:Middlewares/Third_Party/FreeRTOS/Source/timers.c **** 			pxNewTimer->ucStatus = tmrSTATUS_IS_STATICALLY_ALLOCATED;
 339:Middlewares/Third_Party/FreeRTOS/Source/timers.c **** 
 340:Middlewares/Third_Party/FreeRTOS/Source/timers.c **** 			prvInitialiseNewTimer( pcTimerName, xTimerPeriodInTicks, uxAutoReload, pvTimerID, pxCallbackFunc
 341:Middlewares/Third_Party/FreeRTOS/Source/timers.c **** 		}
 342:Middlewares/Third_Party/FreeRTOS/Source/timers.c **** 
 343:Middlewares/Third_Party/FreeRTOS/Source/timers.c **** 		return pxNewTimer;
 344:Middlewares/Third_Party/FreeRTOS/Source/timers.c **** 	}
 345:Middlewares/Third_Party/FreeRTOS/Source/timers.c **** 
 346:Middlewares/Third_Party/FreeRTOS/Source/timers.c **** #endif /* configSUPPORT_STATIC_ALLOCATION */
 347:Middlewares/Third_Party/FreeRTOS/Source/timers.c **** /*-----------------------------------------------------------*/
 348:Middlewares/Third_Party/FreeRTOS/Source/timers.c **** 
 349:Middlewares/Third_Party/FreeRTOS/Source/timers.c **** static void prvInitialiseNewTimer(	const char * const pcTimerName,			/*lint !e971 Unqualified char 
 350:Middlewares/Third_Party/FreeRTOS/Source/timers.c **** 									const TickType_t xTimerPeriodInTicks,
 351:Middlewares/Third_Party/FreeRTOS/Source/timers.c **** 									const UBaseType_t uxAutoReload,
 352:Middlewares/Third_Party/FreeRTOS/Source/timers.c **** 									void * const pvTimerID,
 353:Middlewares/Third_Party/FreeRTOS/Source/timers.c **** 									TimerCallbackFunction_t pxCallbackFunction,
 354:Middlewares/Third_Party/FreeRTOS/Source/timers.c **** 									Timer_t *pxNewTimer )
 355:Middlewares/Third_Party/FreeRTOS/Source/timers.c **** {
 356:Middlewares/Third_Party/FreeRTOS/Source/timers.c **** 	/* 0 is not a valid value for xTimerPeriodInTicks. */
 357:Middlewares/Third_Party/FreeRTOS/Source/timers.c **** 	configASSERT( ( xTimerPeriodInTicks > 0 ) );
 358:Middlewares/Third_Party/FreeRTOS/Source/timers.c **** 
 359:Middlewares/Third_Party/FreeRTOS/Source/timers.c **** 	if( pxNewTimer != NULL )
 360:Middlewares/Third_Party/FreeRTOS/Source/timers.c **** 	{
 361:Middlewares/Third_Party/FreeRTOS/Source/timers.c **** 		/* Ensure the infrastructure used by the timer service task has been
 362:Middlewares/Third_Party/FreeRTOS/Source/timers.c **** 		created/initialised. */
 363:Middlewares/Third_Party/FreeRTOS/Source/timers.c **** 		prvCheckForValidListAndQueue();
 364:Middlewares/Third_Party/FreeRTOS/Source/timers.c **** 
 365:Middlewares/Third_Party/FreeRTOS/Source/timers.c **** 		/* Initialise the timer structure members using the function
 366:Middlewares/Third_Party/FreeRTOS/Source/timers.c **** 		parameters. */
 367:Middlewares/Third_Party/FreeRTOS/Source/timers.c **** 		pxNewTimer->pcTimerName = pcTimerName;
 368:Middlewares/Third_Party/FreeRTOS/Source/timers.c **** 		pxNewTimer->xTimerPeriodInTicks = xTimerPeriodInTicks;
 369:Middlewares/Third_Party/FreeRTOS/Source/timers.c **** 		pxNewTimer->pvTimerID = pvTimerID;
 370:Middlewares/Third_Party/FreeRTOS/Source/timers.c **** 		pxNewTimer->pxCallbackFunction = pxCallbackFunction;
 371:Middlewares/Third_Party/FreeRTOS/Source/timers.c **** 		vListInitialiseItem( &( pxNewTimer->xTimerListItem ) );
 372:Middlewares/Third_Party/FreeRTOS/Source/timers.c **** 		if( uxAutoReload != pdFALSE )
ARM GAS  C:\msys64\tmp\ccn4BJFy.s 			page 8


 373:Middlewares/Third_Party/FreeRTOS/Source/timers.c **** 		{
 374:Middlewares/Third_Party/FreeRTOS/Source/timers.c **** 			pxNewTimer->ucStatus |= tmrSTATUS_IS_AUTORELOAD;
 375:Middlewares/Third_Party/FreeRTOS/Source/timers.c **** 		}
 376:Middlewares/Third_Party/FreeRTOS/Source/timers.c **** 		traceTIMER_CREATE( pxNewTimer );
 377:Middlewares/Third_Party/FreeRTOS/Source/timers.c **** 	}
 378:Middlewares/Third_Party/FreeRTOS/Source/timers.c **** }
 379:Middlewares/Third_Party/FreeRTOS/Source/timers.c **** /*-----------------------------------------------------------*/
 380:Middlewares/Third_Party/FreeRTOS/Source/timers.c **** 
 381:Middlewares/Third_Party/FreeRTOS/Source/timers.c **** BaseType_t xTimerGenericCommand( TimerHandle_t xTimer, const BaseType_t xCommandID, const TickType_
 382:Middlewares/Third_Party/FreeRTOS/Source/timers.c **** {
 383:Middlewares/Third_Party/FreeRTOS/Source/timers.c **** BaseType_t xReturn = pdFAIL;
 384:Middlewares/Third_Party/FreeRTOS/Source/timers.c **** DaemonTaskMessage_t xMessage;
 385:Middlewares/Third_Party/FreeRTOS/Source/timers.c **** 
 386:Middlewares/Third_Party/FreeRTOS/Source/timers.c **** 	configASSERT( xTimer );
 387:Middlewares/Third_Party/FreeRTOS/Source/timers.c **** 
 388:Middlewares/Third_Party/FreeRTOS/Source/timers.c **** 	/* Send a message to the timer service task to perform a particular action
 389:Middlewares/Third_Party/FreeRTOS/Source/timers.c **** 	on a particular timer definition. */
 390:Middlewares/Third_Party/FreeRTOS/Source/timers.c **** 	if( xTimerQueue != NULL )
 391:Middlewares/Third_Party/FreeRTOS/Source/timers.c **** 	{
 392:Middlewares/Third_Party/FreeRTOS/Source/timers.c **** 		/* Send a command to the timer service task to start the xTimer timer. */
 393:Middlewares/Third_Party/FreeRTOS/Source/timers.c **** 		xMessage.xMessageID = xCommandID;
 394:Middlewares/Third_Party/FreeRTOS/Source/timers.c **** 		xMessage.u.xTimerParameters.xMessageValue = xOptionalValue;
 395:Middlewares/Third_Party/FreeRTOS/Source/timers.c **** 		xMessage.u.xTimerParameters.pxTimer = xTimer;
 396:Middlewares/Third_Party/FreeRTOS/Source/timers.c **** 
 397:Middlewares/Third_Party/FreeRTOS/Source/timers.c **** 		if( xCommandID < tmrFIRST_FROM_ISR_COMMAND )
 398:Middlewares/Third_Party/FreeRTOS/Source/timers.c **** 		{
 399:Middlewares/Third_Party/FreeRTOS/Source/timers.c **** 			if( xTaskGetSchedulerState() == taskSCHEDULER_RUNNING )
 400:Middlewares/Third_Party/FreeRTOS/Source/timers.c **** 			{
 401:Middlewares/Third_Party/FreeRTOS/Source/timers.c **** 				xReturn = xQueueSendToBack( xTimerQueue, &xMessage, xTicksToWait );
 402:Middlewares/Third_Party/FreeRTOS/Source/timers.c **** 			}
 403:Middlewares/Third_Party/FreeRTOS/Source/timers.c **** 			else
 404:Middlewares/Third_Party/FreeRTOS/Source/timers.c **** 			{
 405:Middlewares/Third_Party/FreeRTOS/Source/timers.c **** 				xReturn = xQueueSendToBack( xTimerQueue, &xMessage, tmrNO_DELAY );
 406:Middlewares/Third_Party/FreeRTOS/Source/timers.c **** 			}
 407:Middlewares/Third_Party/FreeRTOS/Source/timers.c **** 		}
 408:Middlewares/Third_Party/FreeRTOS/Source/timers.c **** 		else
 409:Middlewares/Third_Party/FreeRTOS/Source/timers.c **** 		{
 410:Middlewares/Third_Party/FreeRTOS/Source/timers.c **** 			xReturn = xQueueSendToBackFromISR( xTimerQueue, &xMessage, pxHigherPriorityTaskWoken );
 411:Middlewares/Third_Party/FreeRTOS/Source/timers.c **** 		}
 412:Middlewares/Third_Party/FreeRTOS/Source/timers.c **** 
 413:Middlewares/Third_Party/FreeRTOS/Source/timers.c **** 		traceTIMER_COMMAND_SEND( xTimer, xCommandID, xOptionalValue, xReturn );
 414:Middlewares/Third_Party/FreeRTOS/Source/timers.c **** 	}
 415:Middlewares/Third_Party/FreeRTOS/Source/timers.c **** 	else
 416:Middlewares/Third_Party/FreeRTOS/Source/timers.c **** 	{
 417:Middlewares/Third_Party/FreeRTOS/Source/timers.c **** 		mtCOVERAGE_TEST_MARKER();
 418:Middlewares/Third_Party/FreeRTOS/Source/timers.c **** 	}
 419:Middlewares/Third_Party/FreeRTOS/Source/timers.c **** 
 420:Middlewares/Third_Party/FreeRTOS/Source/timers.c **** 	return xReturn;
 421:Middlewares/Third_Party/FreeRTOS/Source/timers.c **** }
 422:Middlewares/Third_Party/FreeRTOS/Source/timers.c **** /*-----------------------------------------------------------*/
 423:Middlewares/Third_Party/FreeRTOS/Source/timers.c **** 
 424:Middlewares/Third_Party/FreeRTOS/Source/timers.c **** TaskHandle_t xTimerGetTimerDaemonTaskHandle( void )
 425:Middlewares/Third_Party/FreeRTOS/Source/timers.c **** {
 426:Middlewares/Third_Party/FreeRTOS/Source/timers.c **** 	/* If xTimerGetTimerDaemonTaskHandle() is called before the scheduler has been
 427:Middlewares/Third_Party/FreeRTOS/Source/timers.c **** 	started, then xTimerTaskHandle will be NULL. */
 428:Middlewares/Third_Party/FreeRTOS/Source/timers.c **** 	configASSERT( ( xTimerTaskHandle != NULL ) );
 429:Middlewares/Third_Party/FreeRTOS/Source/timers.c **** 	return xTimerTaskHandle;
ARM GAS  C:\msys64\tmp\ccn4BJFy.s 			page 9


 430:Middlewares/Third_Party/FreeRTOS/Source/timers.c **** }
 431:Middlewares/Third_Party/FreeRTOS/Source/timers.c **** /*-----------------------------------------------------------*/
 432:Middlewares/Third_Party/FreeRTOS/Source/timers.c **** 
 433:Middlewares/Third_Party/FreeRTOS/Source/timers.c **** TickType_t xTimerGetPeriod( TimerHandle_t xTimer )
 434:Middlewares/Third_Party/FreeRTOS/Source/timers.c **** {
 435:Middlewares/Third_Party/FreeRTOS/Source/timers.c **** Timer_t *pxTimer = xTimer;
 436:Middlewares/Third_Party/FreeRTOS/Source/timers.c **** 
 437:Middlewares/Third_Party/FreeRTOS/Source/timers.c **** 	configASSERT( xTimer );
 438:Middlewares/Third_Party/FreeRTOS/Source/timers.c **** 	return pxTimer->xTimerPeriodInTicks;
 439:Middlewares/Third_Party/FreeRTOS/Source/timers.c **** }
 440:Middlewares/Third_Party/FreeRTOS/Source/timers.c **** /*-----------------------------------------------------------*/
 441:Middlewares/Third_Party/FreeRTOS/Source/timers.c **** 
 442:Middlewares/Third_Party/FreeRTOS/Source/timers.c **** void vTimerSetReloadMode( TimerHandle_t xTimer, const UBaseType_t uxAutoReload )
 443:Middlewares/Third_Party/FreeRTOS/Source/timers.c **** {
 444:Middlewares/Third_Party/FreeRTOS/Source/timers.c **** Timer_t * pxTimer =  xTimer;
 445:Middlewares/Third_Party/FreeRTOS/Source/timers.c **** 
 446:Middlewares/Third_Party/FreeRTOS/Source/timers.c **** 	configASSERT( xTimer );
 447:Middlewares/Third_Party/FreeRTOS/Source/timers.c **** 	taskENTER_CRITICAL();
 448:Middlewares/Third_Party/FreeRTOS/Source/timers.c **** 	{
 449:Middlewares/Third_Party/FreeRTOS/Source/timers.c **** 		if( uxAutoReload != pdFALSE )
 450:Middlewares/Third_Party/FreeRTOS/Source/timers.c **** 		{
 451:Middlewares/Third_Party/FreeRTOS/Source/timers.c **** 			pxTimer->ucStatus |= tmrSTATUS_IS_AUTORELOAD;
 452:Middlewares/Third_Party/FreeRTOS/Source/timers.c **** 		}
 453:Middlewares/Third_Party/FreeRTOS/Source/timers.c **** 		else
 454:Middlewares/Third_Party/FreeRTOS/Source/timers.c **** 		{
 455:Middlewares/Third_Party/FreeRTOS/Source/timers.c **** 			pxTimer->ucStatus &= ~tmrSTATUS_IS_AUTORELOAD;
 456:Middlewares/Third_Party/FreeRTOS/Source/timers.c **** 		}
 457:Middlewares/Third_Party/FreeRTOS/Source/timers.c **** 	}
 458:Middlewares/Third_Party/FreeRTOS/Source/timers.c **** 	taskEXIT_CRITICAL();
 459:Middlewares/Third_Party/FreeRTOS/Source/timers.c **** }
 460:Middlewares/Third_Party/FreeRTOS/Source/timers.c **** /*-----------------------------------------------------------*/
 461:Middlewares/Third_Party/FreeRTOS/Source/timers.c **** 
 462:Middlewares/Third_Party/FreeRTOS/Source/timers.c **** TickType_t xTimerGetExpiryTime( TimerHandle_t xTimer )
 463:Middlewares/Third_Party/FreeRTOS/Source/timers.c **** {
 464:Middlewares/Third_Party/FreeRTOS/Source/timers.c **** Timer_t * pxTimer =  xTimer;
 465:Middlewares/Third_Party/FreeRTOS/Source/timers.c **** TickType_t xReturn;
 466:Middlewares/Third_Party/FreeRTOS/Source/timers.c **** 
 467:Middlewares/Third_Party/FreeRTOS/Source/timers.c **** 	configASSERT( xTimer );
 468:Middlewares/Third_Party/FreeRTOS/Source/timers.c **** 	xReturn = listGET_LIST_ITEM_VALUE( &( pxTimer->xTimerListItem ) );
 469:Middlewares/Third_Party/FreeRTOS/Source/timers.c **** 	return xReturn;
 470:Middlewares/Third_Party/FreeRTOS/Source/timers.c **** }
 471:Middlewares/Third_Party/FreeRTOS/Source/timers.c **** /*-----------------------------------------------------------*/
 472:Middlewares/Third_Party/FreeRTOS/Source/timers.c **** 
 473:Middlewares/Third_Party/FreeRTOS/Source/timers.c **** const char * pcTimerGetName( TimerHandle_t xTimer ) /*lint !e971 Unqualified char types are allowed
 474:Middlewares/Third_Party/FreeRTOS/Source/timers.c **** {
 475:Middlewares/Third_Party/FreeRTOS/Source/timers.c **** Timer_t *pxTimer = xTimer;
 476:Middlewares/Third_Party/FreeRTOS/Source/timers.c **** 
 477:Middlewares/Third_Party/FreeRTOS/Source/timers.c **** 	configASSERT( xTimer );
 478:Middlewares/Third_Party/FreeRTOS/Source/timers.c **** 	return pxTimer->pcTimerName;
 479:Middlewares/Third_Party/FreeRTOS/Source/timers.c **** }
 480:Middlewares/Third_Party/FreeRTOS/Source/timers.c **** /*-----------------------------------------------------------*/
 481:Middlewares/Third_Party/FreeRTOS/Source/timers.c **** 
 482:Middlewares/Third_Party/FreeRTOS/Source/timers.c **** static void prvProcessExpiredTimer( const TickType_t xNextExpireTime, const TickType_t xTimeNow )
 483:Middlewares/Third_Party/FreeRTOS/Source/timers.c **** {
 484:Middlewares/Third_Party/FreeRTOS/Source/timers.c **** BaseType_t xResult;
 485:Middlewares/Third_Party/FreeRTOS/Source/timers.c **** Timer_t * const pxTimer = ( Timer_t * ) listGET_OWNER_OF_HEAD_ENTRY( pxCurrentTimerList ); /*lint !
 486:Middlewares/Third_Party/FreeRTOS/Source/timers.c **** 
ARM GAS  C:\msys64\tmp\ccn4BJFy.s 			page 10


 487:Middlewares/Third_Party/FreeRTOS/Source/timers.c **** 	/* Remove the timer from the list of active timers.  A check has already
 488:Middlewares/Third_Party/FreeRTOS/Source/timers.c **** 	been performed to ensure the list is not empty. */
 489:Middlewares/Third_Party/FreeRTOS/Source/timers.c **** 	( void ) uxListRemove( &( pxTimer->xTimerListItem ) );
 490:Middlewares/Third_Party/FreeRTOS/Source/timers.c **** 	traceTIMER_EXPIRED( pxTimer );
 491:Middlewares/Third_Party/FreeRTOS/Source/timers.c **** 
 492:Middlewares/Third_Party/FreeRTOS/Source/timers.c **** 	/* If the timer is an auto reload timer then calculate the next
 493:Middlewares/Third_Party/FreeRTOS/Source/timers.c **** 	expiry time and re-insert the timer in the list of active timers. */
 494:Middlewares/Third_Party/FreeRTOS/Source/timers.c **** 	if( ( pxTimer->ucStatus & tmrSTATUS_IS_AUTORELOAD ) != 0 )
 495:Middlewares/Third_Party/FreeRTOS/Source/timers.c **** 	{
 496:Middlewares/Third_Party/FreeRTOS/Source/timers.c **** 		/* The timer is inserted into a list using a time relative to anything
 497:Middlewares/Third_Party/FreeRTOS/Source/timers.c **** 		other than the current time.  It will therefore be inserted into the
 498:Middlewares/Third_Party/FreeRTOS/Source/timers.c **** 		correct list relative to the time this task thinks it is now. */
 499:Middlewares/Third_Party/FreeRTOS/Source/timers.c **** 		if( prvInsertTimerInActiveList( pxTimer, ( xNextExpireTime + pxTimer->xTimerPeriodInTicks ), xTim
 500:Middlewares/Third_Party/FreeRTOS/Source/timers.c **** 		{
 501:Middlewares/Third_Party/FreeRTOS/Source/timers.c **** 			/* The timer expired before it was added to the active timer
 502:Middlewares/Third_Party/FreeRTOS/Source/timers.c **** 			list.  Reload it now.  */
 503:Middlewares/Third_Party/FreeRTOS/Source/timers.c **** 			xResult = xTimerGenericCommand( pxTimer, tmrCOMMAND_START_DONT_TRACE, xNextExpireTime, NULL, tmr
 504:Middlewares/Third_Party/FreeRTOS/Source/timers.c **** 			configASSERT( xResult );
 505:Middlewares/Third_Party/FreeRTOS/Source/timers.c **** 			( void ) xResult;
 506:Middlewares/Third_Party/FreeRTOS/Source/timers.c **** 		}
 507:Middlewares/Third_Party/FreeRTOS/Source/timers.c **** 		else
 508:Middlewares/Third_Party/FreeRTOS/Source/timers.c **** 		{
 509:Middlewares/Third_Party/FreeRTOS/Source/timers.c **** 			mtCOVERAGE_TEST_MARKER();
 510:Middlewares/Third_Party/FreeRTOS/Source/timers.c **** 		}
 511:Middlewares/Third_Party/FreeRTOS/Source/timers.c **** 	}
 512:Middlewares/Third_Party/FreeRTOS/Source/timers.c **** 	else
 513:Middlewares/Third_Party/FreeRTOS/Source/timers.c **** 	{
 514:Middlewares/Third_Party/FreeRTOS/Source/timers.c **** 		pxTimer->ucStatus &= ~tmrSTATUS_IS_ACTIVE;
 515:Middlewares/Third_Party/FreeRTOS/Source/timers.c **** 		mtCOVERAGE_TEST_MARKER();
 516:Middlewares/Third_Party/FreeRTOS/Source/timers.c **** 	}
 517:Middlewares/Third_Party/FreeRTOS/Source/timers.c **** 
 518:Middlewares/Third_Party/FreeRTOS/Source/timers.c **** 	/* Call the timer callback. */
 519:Middlewares/Third_Party/FreeRTOS/Source/timers.c **** 	pxTimer->pxCallbackFunction( ( TimerHandle_t ) pxTimer );
 520:Middlewares/Third_Party/FreeRTOS/Source/timers.c **** }
 521:Middlewares/Third_Party/FreeRTOS/Source/timers.c **** /*-----------------------------------------------------------*/
 522:Middlewares/Third_Party/FreeRTOS/Source/timers.c **** 
 523:Middlewares/Third_Party/FreeRTOS/Source/timers.c **** static portTASK_FUNCTION( prvTimerTask, pvParameters )
 524:Middlewares/Third_Party/FreeRTOS/Source/timers.c **** {
 525:Middlewares/Third_Party/FreeRTOS/Source/timers.c **** TickType_t xNextExpireTime;
 526:Middlewares/Third_Party/FreeRTOS/Source/timers.c **** BaseType_t xListWasEmpty;
 527:Middlewares/Third_Party/FreeRTOS/Source/timers.c **** 
 528:Middlewares/Third_Party/FreeRTOS/Source/timers.c **** 	/* Just to avoid compiler warnings. */
 529:Middlewares/Third_Party/FreeRTOS/Source/timers.c **** 	( void ) pvParameters;
 530:Middlewares/Third_Party/FreeRTOS/Source/timers.c **** 
 531:Middlewares/Third_Party/FreeRTOS/Source/timers.c **** 	#if( configUSE_DAEMON_TASK_STARTUP_HOOK == 1 )
 532:Middlewares/Third_Party/FreeRTOS/Source/timers.c **** 	{
 533:Middlewares/Third_Party/FreeRTOS/Source/timers.c **** 		extern void vApplicationDaemonTaskStartupHook( void );
 534:Middlewares/Third_Party/FreeRTOS/Source/timers.c **** 
 535:Middlewares/Third_Party/FreeRTOS/Source/timers.c **** 		/* Allow the application writer to execute some code in the context of
 536:Middlewares/Third_Party/FreeRTOS/Source/timers.c **** 		this task at the point the task starts executing.  This is useful if the
 537:Middlewares/Third_Party/FreeRTOS/Source/timers.c **** 		application includes initialisation code that would benefit from
 538:Middlewares/Third_Party/FreeRTOS/Source/timers.c **** 		executing after the scheduler has been started. */
 539:Middlewares/Third_Party/FreeRTOS/Source/timers.c **** 		vApplicationDaemonTaskStartupHook();
 540:Middlewares/Third_Party/FreeRTOS/Source/timers.c **** 	}
 541:Middlewares/Third_Party/FreeRTOS/Source/timers.c **** 	#endif /* configUSE_DAEMON_TASK_STARTUP_HOOK */
 542:Middlewares/Third_Party/FreeRTOS/Source/timers.c **** 
 543:Middlewares/Third_Party/FreeRTOS/Source/timers.c **** 	for( ;; )
ARM GAS  C:\msys64\tmp\ccn4BJFy.s 			page 11


 544:Middlewares/Third_Party/FreeRTOS/Source/timers.c **** 	{
 545:Middlewares/Third_Party/FreeRTOS/Source/timers.c **** 		/* Query the timers list to see if it contains any timers, and if so,
 546:Middlewares/Third_Party/FreeRTOS/Source/timers.c **** 		obtain the time at which the next timer will expire. */
 547:Middlewares/Third_Party/FreeRTOS/Source/timers.c **** 		xNextExpireTime = prvGetNextExpireTime( &xListWasEmpty );
 548:Middlewares/Third_Party/FreeRTOS/Source/timers.c **** 
 549:Middlewares/Third_Party/FreeRTOS/Source/timers.c **** 		/* If a timer has expired, process it.  Otherwise, block this task
 550:Middlewares/Third_Party/FreeRTOS/Source/timers.c **** 		until either a timer does expire, or a command is received. */
 551:Middlewares/Third_Party/FreeRTOS/Source/timers.c **** 		prvProcessTimerOrBlockTask( xNextExpireTime, xListWasEmpty );
 552:Middlewares/Third_Party/FreeRTOS/Source/timers.c **** 
 553:Middlewares/Third_Party/FreeRTOS/Source/timers.c **** 		/* Empty the command queue. */
 554:Middlewares/Third_Party/FreeRTOS/Source/timers.c **** 		prvProcessReceivedCommands();
 555:Middlewares/Third_Party/FreeRTOS/Source/timers.c **** 	}
 556:Middlewares/Third_Party/FreeRTOS/Source/timers.c **** }
 557:Middlewares/Third_Party/FreeRTOS/Source/timers.c **** /*-----------------------------------------------------------*/
 558:Middlewares/Third_Party/FreeRTOS/Source/timers.c **** 
 559:Middlewares/Third_Party/FreeRTOS/Source/timers.c **** static void prvProcessTimerOrBlockTask( const TickType_t xNextExpireTime, BaseType_t xListWasEmpty 
 560:Middlewares/Third_Party/FreeRTOS/Source/timers.c **** {
 561:Middlewares/Third_Party/FreeRTOS/Source/timers.c **** TickType_t xTimeNow;
 562:Middlewares/Third_Party/FreeRTOS/Source/timers.c **** BaseType_t xTimerListsWereSwitched;
 563:Middlewares/Third_Party/FreeRTOS/Source/timers.c **** 
 564:Middlewares/Third_Party/FreeRTOS/Source/timers.c **** 	vTaskSuspendAll();
 565:Middlewares/Third_Party/FreeRTOS/Source/timers.c **** 	{
 566:Middlewares/Third_Party/FreeRTOS/Source/timers.c **** 		/* Obtain the time now to make an assessment as to whether the timer
 567:Middlewares/Third_Party/FreeRTOS/Source/timers.c **** 		has expired or not.  If obtaining the time causes the lists to switch
 568:Middlewares/Third_Party/FreeRTOS/Source/timers.c **** 		then don't process this timer as any timers that remained in the list
 569:Middlewares/Third_Party/FreeRTOS/Source/timers.c **** 		when the lists were switched will have been processed within the
 570:Middlewares/Third_Party/FreeRTOS/Source/timers.c **** 		prvSampleTimeNow() function. */
 571:Middlewares/Third_Party/FreeRTOS/Source/timers.c **** 		xTimeNow = prvSampleTimeNow( &xTimerListsWereSwitched );
 572:Middlewares/Third_Party/FreeRTOS/Source/timers.c **** 		if( xTimerListsWereSwitched == pdFALSE )
 573:Middlewares/Third_Party/FreeRTOS/Source/timers.c **** 		{
 574:Middlewares/Third_Party/FreeRTOS/Source/timers.c **** 			/* The tick count has not overflowed, has the timer expired? */
 575:Middlewares/Third_Party/FreeRTOS/Source/timers.c **** 			if( ( xListWasEmpty == pdFALSE ) && ( xNextExpireTime <= xTimeNow ) )
 576:Middlewares/Third_Party/FreeRTOS/Source/timers.c **** 			{
 577:Middlewares/Third_Party/FreeRTOS/Source/timers.c **** 				( void ) xTaskResumeAll();
 578:Middlewares/Third_Party/FreeRTOS/Source/timers.c **** 				prvProcessExpiredTimer( xNextExpireTime, xTimeNow );
 579:Middlewares/Third_Party/FreeRTOS/Source/timers.c **** 			}
 580:Middlewares/Third_Party/FreeRTOS/Source/timers.c **** 			else
 581:Middlewares/Third_Party/FreeRTOS/Source/timers.c **** 			{
 582:Middlewares/Third_Party/FreeRTOS/Source/timers.c **** 				/* The tick count has not overflowed, and the next expire
 583:Middlewares/Third_Party/FreeRTOS/Source/timers.c **** 				time has not been reached yet.  This task should therefore
 584:Middlewares/Third_Party/FreeRTOS/Source/timers.c **** 				block to wait for the next expire time or a command to be
 585:Middlewares/Third_Party/FreeRTOS/Source/timers.c **** 				received - whichever comes first.  The following line cannot
 586:Middlewares/Third_Party/FreeRTOS/Source/timers.c **** 				be reached unless xNextExpireTime > xTimeNow, except in the
 587:Middlewares/Third_Party/FreeRTOS/Source/timers.c **** 				case when the current timer list is empty. */
 588:Middlewares/Third_Party/FreeRTOS/Source/timers.c **** 				if( xListWasEmpty != pdFALSE )
 589:Middlewares/Third_Party/FreeRTOS/Source/timers.c **** 				{
 590:Middlewares/Third_Party/FreeRTOS/Source/timers.c **** 					/* The current timer list is empty - is the overflow list
 591:Middlewares/Third_Party/FreeRTOS/Source/timers.c **** 					also empty? */
 592:Middlewares/Third_Party/FreeRTOS/Source/timers.c **** 					xListWasEmpty = listLIST_IS_EMPTY( pxOverflowTimerList );
 593:Middlewares/Third_Party/FreeRTOS/Source/timers.c **** 				}
 594:Middlewares/Third_Party/FreeRTOS/Source/timers.c **** 
 595:Middlewares/Third_Party/FreeRTOS/Source/timers.c **** 				vQueueWaitForMessageRestricted( xTimerQueue, ( xNextExpireTime - xTimeNow ), xListWasEmpty );
 596:Middlewares/Third_Party/FreeRTOS/Source/timers.c **** 
 597:Middlewares/Third_Party/FreeRTOS/Source/timers.c **** 				if( xTaskResumeAll() == pdFALSE )
 598:Middlewares/Third_Party/FreeRTOS/Source/timers.c **** 				{
 599:Middlewares/Third_Party/FreeRTOS/Source/timers.c **** 					/* Yield to wait for either a command to arrive, or the
 600:Middlewares/Third_Party/FreeRTOS/Source/timers.c **** 					block time to expire.  If a command arrived between the
ARM GAS  C:\msys64\tmp\ccn4BJFy.s 			page 12


 601:Middlewares/Third_Party/FreeRTOS/Source/timers.c **** 					critical section being exited and this yield then the yield
 602:Middlewares/Third_Party/FreeRTOS/Source/timers.c **** 					will not cause the task to block. */
 603:Middlewares/Third_Party/FreeRTOS/Source/timers.c **** 					portYIELD_WITHIN_API();
 604:Middlewares/Third_Party/FreeRTOS/Source/timers.c **** 				}
 605:Middlewares/Third_Party/FreeRTOS/Source/timers.c **** 				else
 606:Middlewares/Third_Party/FreeRTOS/Source/timers.c **** 				{
 607:Middlewares/Third_Party/FreeRTOS/Source/timers.c **** 					mtCOVERAGE_TEST_MARKER();
 608:Middlewares/Third_Party/FreeRTOS/Source/timers.c **** 				}
 609:Middlewares/Third_Party/FreeRTOS/Source/timers.c **** 			}
 610:Middlewares/Third_Party/FreeRTOS/Source/timers.c **** 		}
 611:Middlewares/Third_Party/FreeRTOS/Source/timers.c **** 		else
 612:Middlewares/Third_Party/FreeRTOS/Source/timers.c **** 		{
 613:Middlewares/Third_Party/FreeRTOS/Source/timers.c **** 			( void ) xTaskResumeAll();
 614:Middlewares/Third_Party/FreeRTOS/Source/timers.c **** 		}
 615:Middlewares/Third_Party/FreeRTOS/Source/timers.c **** 	}
 616:Middlewares/Third_Party/FreeRTOS/Source/timers.c **** }
 617:Middlewares/Third_Party/FreeRTOS/Source/timers.c **** /*-----------------------------------------------------------*/
 618:Middlewares/Third_Party/FreeRTOS/Source/timers.c **** 
 619:Middlewares/Third_Party/FreeRTOS/Source/timers.c **** static TickType_t prvGetNextExpireTime( BaseType_t * const pxListWasEmpty )
 620:Middlewares/Third_Party/FreeRTOS/Source/timers.c **** {
  29              		.loc 1 620 1 view -0
  30              		.cfi_startproc
  31              		@ args = 0, pretend = 0, frame = 0
  32              		@ frame_needed = 0, uses_anonymous_args = 0
  33              		@ link register save eliminated.
 621:Middlewares/Third_Party/FreeRTOS/Source/timers.c **** TickType_t xNextExpireTime;
  34              		.loc 1 621 1 view .LVU1
 622:Middlewares/Third_Party/FreeRTOS/Source/timers.c **** 
 623:Middlewares/Third_Party/FreeRTOS/Source/timers.c **** 	/* Timers are listed in expiry time order, with the head of the list
 624:Middlewares/Third_Party/FreeRTOS/Source/timers.c **** 	referencing the task that will expire first.  Obtain the time at which
 625:Middlewares/Third_Party/FreeRTOS/Source/timers.c **** 	the timer with the nearest expiry time will expire.  If there are no
 626:Middlewares/Third_Party/FreeRTOS/Source/timers.c **** 	active timers then just set the next expire time to 0.  That will cause
 627:Middlewares/Third_Party/FreeRTOS/Source/timers.c **** 	this task to unblock when the tick count overflows, at which point the
 628:Middlewares/Third_Party/FreeRTOS/Source/timers.c **** 	timer lists will be switched and the next expiry time can be
 629:Middlewares/Third_Party/FreeRTOS/Source/timers.c **** 	re-assessed.  */
 630:Middlewares/Third_Party/FreeRTOS/Source/timers.c **** 	*pxListWasEmpty = listLIST_IS_EMPTY( pxCurrentTimerList );
  35              		.loc 1 630 2 view .LVU2
  36              		.loc 1 630 20 is_stmt 0 view .LVU3
  37 0000 064B     		ldr	r3, .L6
  38 0002 1A68     		ldr	r2, [r3]
  39 0004 1368     		ldr	r3, [r2]
  40 0006 2BB9     		cbnz	r3, .L4
  41 0008 0123     		movs	r3, #1
  42              	.L2:
  43              		.loc 1 630 18 discriminator 4 view .LVU4
  44 000a 0360     		str	r3, [r0]
 631:Middlewares/Third_Party/FreeRTOS/Source/timers.c **** 	if( *pxListWasEmpty == pdFALSE )
  45              		.loc 1 631 2 is_stmt 1 discriminator 4 view .LVU5
  46              		.loc 1 631 4 is_stmt 0 discriminator 4 view .LVU6
  47 000c 23B9     		cbnz	r3, .L5
 632:Middlewares/Third_Party/FreeRTOS/Source/timers.c **** 	{
 633:Middlewares/Third_Party/FreeRTOS/Source/timers.c **** 		xNextExpireTime = listGET_ITEM_VALUE_OF_HEAD_ENTRY( pxCurrentTimerList );
  48              		.loc 1 633 3 is_stmt 1 view .LVU7
  49              		.loc 1 633 21 is_stmt 0 view .LVU8
  50 000e D368     		ldr	r3, [r2, #12]
  51              		.loc 1 633 19 view .LVU9
  52 0010 1868     		ldr	r0, [r3]
ARM GAS  C:\msys64\tmp\ccn4BJFy.s 			page 13


  53              	.LVL1:
  54              		.loc 1 633 19 view .LVU10
  55 0012 7047     		bx	lr
  56              	.LVL2:
  57              	.L4:
 630:Middlewares/Third_Party/FreeRTOS/Source/timers.c **** 	if( *pxListWasEmpty == pdFALSE )
  58              		.loc 1 630 20 view .LVU11
  59 0014 0023     		movs	r3, #0
  60 0016 F8E7     		b	.L2
  61              	.L5:
 634:Middlewares/Third_Party/FreeRTOS/Source/timers.c **** 	}
 635:Middlewares/Third_Party/FreeRTOS/Source/timers.c **** 	else
 636:Middlewares/Third_Party/FreeRTOS/Source/timers.c **** 	{
 637:Middlewares/Third_Party/FreeRTOS/Source/timers.c **** 		/* Ensure the task unblocks when the tick count rolls over. */
 638:Middlewares/Third_Party/FreeRTOS/Source/timers.c **** 		xNextExpireTime = ( TickType_t ) 0U;
  62              		.loc 1 638 19 view .LVU12
  63 0018 0020     		movs	r0, #0
  64              	.LVL3:
 639:Middlewares/Third_Party/FreeRTOS/Source/timers.c **** 	}
 640:Middlewares/Third_Party/FreeRTOS/Source/timers.c **** 
 641:Middlewares/Third_Party/FreeRTOS/Source/timers.c **** 	return xNextExpireTime;
  65              		.loc 1 641 2 is_stmt 1 view .LVU13
 642:Middlewares/Third_Party/FreeRTOS/Source/timers.c **** }
  66              		.loc 1 642 1 is_stmt 0 view .LVU14
  67 001a 7047     		bx	lr
  68              	.L7:
  69              		.align	2
  70              	.L6:
  71 001c 00000000 		.word	.LANCHOR0
  72              		.cfi_endproc
  73              	.LFE17:
  75              		.section	.text.prvInsertTimerInActiveList,"ax",%progbits
  76              		.align	1
  77              		.syntax unified
  78              		.thumb
  79              		.thumb_func
  81              	prvInsertTimerInActiveList:
  82              	.LVL4:
  83              	.LFB19:
 643:Middlewares/Third_Party/FreeRTOS/Source/timers.c **** /*-----------------------------------------------------------*/
 644:Middlewares/Third_Party/FreeRTOS/Source/timers.c **** 
 645:Middlewares/Third_Party/FreeRTOS/Source/timers.c **** static TickType_t prvSampleTimeNow( BaseType_t * const pxTimerListsWereSwitched )
 646:Middlewares/Third_Party/FreeRTOS/Source/timers.c **** {
 647:Middlewares/Third_Party/FreeRTOS/Source/timers.c **** TickType_t xTimeNow;
 648:Middlewares/Third_Party/FreeRTOS/Source/timers.c **** PRIVILEGED_DATA static TickType_t xLastTime = ( TickType_t ) 0U; /*lint !e956 Variable is only acce
 649:Middlewares/Third_Party/FreeRTOS/Source/timers.c **** 
 650:Middlewares/Third_Party/FreeRTOS/Source/timers.c **** 	xTimeNow = xTaskGetTickCount();
 651:Middlewares/Third_Party/FreeRTOS/Source/timers.c **** 
 652:Middlewares/Third_Party/FreeRTOS/Source/timers.c **** 	if( xTimeNow < xLastTime )
 653:Middlewares/Third_Party/FreeRTOS/Source/timers.c **** 	{
 654:Middlewares/Third_Party/FreeRTOS/Source/timers.c **** 		prvSwitchTimerLists();
 655:Middlewares/Third_Party/FreeRTOS/Source/timers.c **** 		*pxTimerListsWereSwitched = pdTRUE;
 656:Middlewares/Third_Party/FreeRTOS/Source/timers.c **** 	}
 657:Middlewares/Third_Party/FreeRTOS/Source/timers.c **** 	else
 658:Middlewares/Third_Party/FreeRTOS/Source/timers.c **** 	{
 659:Middlewares/Third_Party/FreeRTOS/Source/timers.c **** 		*pxTimerListsWereSwitched = pdFALSE;
 660:Middlewares/Third_Party/FreeRTOS/Source/timers.c **** 	}
ARM GAS  C:\msys64\tmp\ccn4BJFy.s 			page 14


 661:Middlewares/Third_Party/FreeRTOS/Source/timers.c **** 
 662:Middlewares/Third_Party/FreeRTOS/Source/timers.c **** 	xLastTime = xTimeNow;
 663:Middlewares/Third_Party/FreeRTOS/Source/timers.c **** 
 664:Middlewares/Third_Party/FreeRTOS/Source/timers.c **** 	return xTimeNow;
 665:Middlewares/Third_Party/FreeRTOS/Source/timers.c **** }
 666:Middlewares/Third_Party/FreeRTOS/Source/timers.c **** /*-----------------------------------------------------------*/
 667:Middlewares/Third_Party/FreeRTOS/Source/timers.c **** 
 668:Middlewares/Third_Party/FreeRTOS/Source/timers.c **** static BaseType_t prvInsertTimerInActiveList( Timer_t * const pxTimer, const TickType_t xNextExpiry
 669:Middlewares/Third_Party/FreeRTOS/Source/timers.c **** {
  84              		.loc 1 669 1 is_stmt 1 view -0
  85              		.cfi_startproc
  86              		@ args = 0, pretend = 0, frame = 0
  87              		@ frame_needed = 0, uses_anonymous_args = 0
  88              		.loc 1 669 1 is_stmt 0 view .LVU16
  89 0000 08B5     		push	{r3, lr}
  90              	.LCFI0:
  91              		.cfi_def_cfa_offset 8
  92              		.cfi_offset 3, -8
  93              		.cfi_offset 14, -4
 670:Middlewares/Third_Party/FreeRTOS/Source/timers.c **** BaseType_t xProcessTimerNow = pdFALSE;
  94              		.loc 1 670 1 is_stmt 1 view .LVU17
  95              	.LVL5:
 671:Middlewares/Third_Party/FreeRTOS/Source/timers.c **** 
 672:Middlewares/Third_Party/FreeRTOS/Source/timers.c **** 	listSET_LIST_ITEM_VALUE( &( pxTimer->xTimerListItem ), xNextExpiryTime );
  96              		.loc 1 672 2 view .LVU18
  97 0002 4160     		str	r1, [r0, #4]
 673:Middlewares/Third_Party/FreeRTOS/Source/timers.c **** 	listSET_LIST_ITEM_OWNER( &( pxTimer->xTimerListItem ), pxTimer );
  98              		.loc 1 673 2 view .LVU19
  99 0004 0061     		str	r0, [r0, #16]
 674:Middlewares/Third_Party/FreeRTOS/Source/timers.c **** 
 675:Middlewares/Third_Party/FreeRTOS/Source/timers.c **** 	if( xNextExpiryTime <= xTimeNow )
 100              		.loc 1 675 2 view .LVU20
 101              		.loc 1 675 4 is_stmt 0 view .LVU21
 102 0006 9142     		cmp	r1, r2
 103 0008 0CD8     		bhi	.L9
 676:Middlewares/Third_Party/FreeRTOS/Source/timers.c **** 	{
 677:Middlewares/Third_Party/FreeRTOS/Source/timers.c **** 		/* Has the expiry time elapsed between the command to start/reset a
 678:Middlewares/Third_Party/FreeRTOS/Source/timers.c **** 		timer was issued, and the time the command was processed? */
 679:Middlewares/Third_Party/FreeRTOS/Source/timers.c **** 		if( ( ( TickType_t ) ( xTimeNow - xCommandTime ) ) >= pxTimer->xTimerPeriodInTicks ) /*lint !e961
 104              		.loc 1 679 3 is_stmt 1 view .LVU22
 105              		.loc 1 679 9 is_stmt 0 view .LVU23
 106 000a D21A     		subs	r2, r2, r3
 107              	.LVL6:
 108              		.loc 1 679 64 view .LVU24
 109 000c 8369     		ldr	r3, [r0, #24]
 110              	.LVL7:
 111              		.loc 1 679 5 view .LVU25
 112 000e 9A42     		cmp	r2, r3
 113 0010 01D3     		bcc	.L14
 680:Middlewares/Third_Party/FreeRTOS/Source/timers.c **** 		{
 681:Middlewares/Third_Party/FreeRTOS/Source/timers.c **** 			/* The time between a command being issued and the command being
 682:Middlewares/Third_Party/FreeRTOS/Source/timers.c **** 			processed actually exceeds the timers period.  */
 683:Middlewares/Third_Party/FreeRTOS/Source/timers.c **** 			xProcessTimerNow = pdTRUE;
 114              		.loc 1 683 21 view .LVU26
 115 0012 0120     		movs	r0, #1
 116              	.LVL8:
 117              	.L8:
ARM GAS  C:\msys64\tmp\ccn4BJFy.s 			page 15


 684:Middlewares/Third_Party/FreeRTOS/Source/timers.c **** 		}
 685:Middlewares/Third_Party/FreeRTOS/Source/timers.c **** 		else
 686:Middlewares/Third_Party/FreeRTOS/Source/timers.c **** 		{
 687:Middlewares/Third_Party/FreeRTOS/Source/timers.c **** 			vListInsert( pxOverflowTimerList, &( pxTimer->xTimerListItem ) );
 688:Middlewares/Third_Party/FreeRTOS/Source/timers.c **** 		}
 689:Middlewares/Third_Party/FreeRTOS/Source/timers.c **** 	}
 690:Middlewares/Third_Party/FreeRTOS/Source/timers.c **** 	else
 691:Middlewares/Third_Party/FreeRTOS/Source/timers.c **** 	{
 692:Middlewares/Third_Party/FreeRTOS/Source/timers.c **** 		if( ( xTimeNow < xCommandTime ) && ( xNextExpiryTime >= xCommandTime ) )
 693:Middlewares/Third_Party/FreeRTOS/Source/timers.c **** 		{
 694:Middlewares/Third_Party/FreeRTOS/Source/timers.c **** 			/* If, since the command was issued, the tick count has overflowed
 695:Middlewares/Third_Party/FreeRTOS/Source/timers.c **** 			but the expiry time has not, then the timer must have already passed
 696:Middlewares/Third_Party/FreeRTOS/Source/timers.c **** 			its expiry time and should be processed immediately. */
 697:Middlewares/Third_Party/FreeRTOS/Source/timers.c **** 			xProcessTimerNow = pdTRUE;
 698:Middlewares/Third_Party/FreeRTOS/Source/timers.c **** 		}
 699:Middlewares/Third_Party/FreeRTOS/Source/timers.c **** 		else
 700:Middlewares/Third_Party/FreeRTOS/Source/timers.c **** 		{
 701:Middlewares/Third_Party/FreeRTOS/Source/timers.c **** 			vListInsert( pxCurrentTimerList, &( pxTimer->xTimerListItem ) );
 702:Middlewares/Third_Party/FreeRTOS/Source/timers.c **** 		}
 703:Middlewares/Third_Party/FreeRTOS/Source/timers.c **** 	}
 704:Middlewares/Third_Party/FreeRTOS/Source/timers.c **** 
 705:Middlewares/Third_Party/FreeRTOS/Source/timers.c **** 	return xProcessTimerNow;
 706:Middlewares/Third_Party/FreeRTOS/Source/timers.c **** }
 118              		.loc 1 706 1 view .LVU27
 119 0014 08BD     		pop	{r3, pc}
 120              	.LVL9:
 121              	.L14:
 687:Middlewares/Third_Party/FreeRTOS/Source/timers.c **** 		}
 122              		.loc 1 687 4 is_stmt 1 view .LVU28
 123 0016 011D     		adds	r1, r0, #4
 124              	.LVL10:
 687:Middlewares/Third_Party/FreeRTOS/Source/timers.c **** 		}
 125              		.loc 1 687 4 is_stmt 0 view .LVU29
 126 0018 0B4B     		ldr	r3, .L16
 127 001a 1868     		ldr	r0, [r3]
 128              	.LVL11:
 687:Middlewares/Third_Party/FreeRTOS/Source/timers.c **** 		}
 129              		.loc 1 687 4 view .LVU30
 130 001c FFF7FEFF 		bl	vListInsert
 131              	.LVL12:
 670:Middlewares/Third_Party/FreeRTOS/Source/timers.c **** 
 132              		.loc 1 670 12 view .LVU31
 133 0020 0020     		movs	r0, #0
 134 0022 F7E7     		b	.L8
 135              	.LVL13:
 136              	.L9:
 692:Middlewares/Third_Party/FreeRTOS/Source/timers.c **** 		{
 137              		.loc 1 692 3 is_stmt 1 view .LVU32
 692:Middlewares/Third_Party/FreeRTOS/Source/timers.c **** 		{
 138              		.loc 1 692 35 is_stmt 0 view .LVU33
 139 0024 9A42     		cmp	r2, r3
 140 0026 2CBF     		ite	cs
 141 0028 0022     		movcs	r2, #0
 142              	.LVL14:
 692:Middlewares/Third_Party/FreeRTOS/Source/timers.c **** 		{
 143              		.loc 1 692 35 view .LVU34
 144 002a 0122     		movcc	r2, #1
ARM GAS  C:\msys64\tmp\ccn4BJFy.s 			page 16


 145 002c 9942     		cmp	r1, r3
 146 002e 38BF     		it	cc
 147 0030 0022     		movcc	r2, #0
 692:Middlewares/Third_Party/FreeRTOS/Source/timers.c **** 		{
 148              		.loc 1 692 5 view .LVU35
 149 0032 0AB1     		cbz	r2, .L15
 697:Middlewares/Third_Party/FreeRTOS/Source/timers.c **** 		}
 150              		.loc 1 697 21 view .LVU36
 151 0034 0120     		movs	r0, #1
 152              	.LVL15:
 705:Middlewares/Third_Party/FreeRTOS/Source/timers.c **** }
 153              		.loc 1 705 2 is_stmt 1 view .LVU37
 705:Middlewares/Third_Party/FreeRTOS/Source/timers.c **** }
 154              		.loc 1 705 9 is_stmt 0 view .LVU38
 155 0036 EDE7     		b	.L8
 156              	.LVL16:
 157              	.L15:
 701:Middlewares/Third_Party/FreeRTOS/Source/timers.c **** 		}
 158              		.loc 1 701 4 is_stmt 1 view .LVU39
 159 0038 011D     		adds	r1, r0, #4
 160              	.LVL17:
 701:Middlewares/Third_Party/FreeRTOS/Source/timers.c **** 		}
 161              		.loc 1 701 4 is_stmt 0 view .LVU40
 162 003a 044B     		ldr	r3, .L16+4
 163              	.LVL18:
 701:Middlewares/Third_Party/FreeRTOS/Source/timers.c **** 		}
 164              		.loc 1 701 4 view .LVU41
 165 003c 1868     		ldr	r0, [r3]
 166              	.LVL19:
 701:Middlewares/Third_Party/FreeRTOS/Source/timers.c **** 		}
 167              		.loc 1 701 4 view .LVU42
 168 003e FFF7FEFF 		bl	vListInsert
 169              	.LVL20:
 670:Middlewares/Third_Party/FreeRTOS/Source/timers.c **** 
 170              		.loc 1 670 12 view .LVU43
 171 0042 0020     		movs	r0, #0
 172 0044 E6E7     		b	.L8
 173              	.L17:
 174 0046 00BF     		.align	2
 175              	.L16:
 176 0048 00000000 		.word	.LANCHOR1
 177 004c 00000000 		.word	.LANCHOR0
 178              		.cfi_endproc
 179              	.LFE19:
 181              		.section	.rodata.prvCheckForValidListAndQueue.str1.4,"aMS",%progbits,1
 182              		.align	2
 183              	.LC0:
 184 0000 546D7251 		.ascii	"TmrQ\000"
 184      00
 185              		.section	.text.prvCheckForValidListAndQueue,"ax",%progbits
 186              		.align	1
 187              		.syntax unified
 188              		.thumb
 189              		.thumb_func
 191              	prvCheckForValidListAndQueue:
 192              	.LFB22:
 707:Middlewares/Third_Party/FreeRTOS/Source/timers.c **** /*-----------------------------------------------------------*/
ARM GAS  C:\msys64\tmp\ccn4BJFy.s 			page 17


 708:Middlewares/Third_Party/FreeRTOS/Source/timers.c **** 
 709:Middlewares/Third_Party/FreeRTOS/Source/timers.c **** static void	prvProcessReceivedCommands( void )
 710:Middlewares/Third_Party/FreeRTOS/Source/timers.c **** {
 711:Middlewares/Third_Party/FreeRTOS/Source/timers.c **** DaemonTaskMessage_t xMessage;
 712:Middlewares/Third_Party/FreeRTOS/Source/timers.c **** Timer_t *pxTimer;
 713:Middlewares/Third_Party/FreeRTOS/Source/timers.c **** BaseType_t xTimerListsWereSwitched, xResult;
 714:Middlewares/Third_Party/FreeRTOS/Source/timers.c **** TickType_t xTimeNow;
 715:Middlewares/Third_Party/FreeRTOS/Source/timers.c **** 
 716:Middlewares/Third_Party/FreeRTOS/Source/timers.c **** 	while( xQueueReceive( xTimerQueue, &xMessage, tmrNO_DELAY ) != pdFAIL ) /*lint !e603 xMessage does
 717:Middlewares/Third_Party/FreeRTOS/Source/timers.c **** 	{
 718:Middlewares/Third_Party/FreeRTOS/Source/timers.c **** 		#if ( INCLUDE_xTimerPendFunctionCall == 1 )
 719:Middlewares/Third_Party/FreeRTOS/Source/timers.c **** 		{
 720:Middlewares/Third_Party/FreeRTOS/Source/timers.c **** 			/* Negative commands are pended function calls rather than timer
 721:Middlewares/Third_Party/FreeRTOS/Source/timers.c **** 			commands. */
 722:Middlewares/Third_Party/FreeRTOS/Source/timers.c **** 			if( xMessage.xMessageID < ( BaseType_t ) 0 )
 723:Middlewares/Third_Party/FreeRTOS/Source/timers.c **** 			{
 724:Middlewares/Third_Party/FreeRTOS/Source/timers.c **** 				const CallbackParameters_t * const pxCallback = &( xMessage.u.xCallbackParameters );
 725:Middlewares/Third_Party/FreeRTOS/Source/timers.c **** 
 726:Middlewares/Third_Party/FreeRTOS/Source/timers.c **** 				/* The timer uses the xCallbackParameters member to request a
 727:Middlewares/Third_Party/FreeRTOS/Source/timers.c **** 				callback be executed.  Check the callback is not NULL. */
 728:Middlewares/Third_Party/FreeRTOS/Source/timers.c **** 				configASSERT( pxCallback );
 729:Middlewares/Third_Party/FreeRTOS/Source/timers.c **** 
 730:Middlewares/Third_Party/FreeRTOS/Source/timers.c **** 				/* Call the function. */
 731:Middlewares/Third_Party/FreeRTOS/Source/timers.c **** 				pxCallback->pxCallbackFunction( pxCallback->pvParameter1, pxCallback->ulParameter2 );
 732:Middlewares/Third_Party/FreeRTOS/Source/timers.c **** 			}
 733:Middlewares/Third_Party/FreeRTOS/Source/timers.c **** 			else
 734:Middlewares/Third_Party/FreeRTOS/Source/timers.c **** 			{
 735:Middlewares/Third_Party/FreeRTOS/Source/timers.c **** 				mtCOVERAGE_TEST_MARKER();
 736:Middlewares/Third_Party/FreeRTOS/Source/timers.c **** 			}
 737:Middlewares/Third_Party/FreeRTOS/Source/timers.c **** 		}
 738:Middlewares/Third_Party/FreeRTOS/Source/timers.c **** 		#endif /* INCLUDE_xTimerPendFunctionCall */
 739:Middlewares/Third_Party/FreeRTOS/Source/timers.c **** 
 740:Middlewares/Third_Party/FreeRTOS/Source/timers.c **** 		/* Commands that are positive are timer commands rather than pended
 741:Middlewares/Third_Party/FreeRTOS/Source/timers.c **** 		function calls. */
 742:Middlewares/Third_Party/FreeRTOS/Source/timers.c **** 		if( xMessage.xMessageID >= ( BaseType_t ) 0 )
 743:Middlewares/Third_Party/FreeRTOS/Source/timers.c **** 		{
 744:Middlewares/Third_Party/FreeRTOS/Source/timers.c **** 			/* The messages uses the xTimerParameters member to work on a
 745:Middlewares/Third_Party/FreeRTOS/Source/timers.c **** 			software timer. */
 746:Middlewares/Third_Party/FreeRTOS/Source/timers.c **** 			pxTimer = xMessage.u.xTimerParameters.pxTimer;
 747:Middlewares/Third_Party/FreeRTOS/Source/timers.c **** 
 748:Middlewares/Third_Party/FreeRTOS/Source/timers.c **** 			if( listIS_CONTAINED_WITHIN( NULL, &( pxTimer->xTimerListItem ) ) == pdFALSE ) /*lint !e961. The
 749:Middlewares/Third_Party/FreeRTOS/Source/timers.c **** 			{
 750:Middlewares/Third_Party/FreeRTOS/Source/timers.c **** 				/* The timer is in a list, remove it. */
 751:Middlewares/Third_Party/FreeRTOS/Source/timers.c **** 				( void ) uxListRemove( &( pxTimer->xTimerListItem ) );
 752:Middlewares/Third_Party/FreeRTOS/Source/timers.c **** 			}
 753:Middlewares/Third_Party/FreeRTOS/Source/timers.c **** 			else
 754:Middlewares/Third_Party/FreeRTOS/Source/timers.c **** 			{
 755:Middlewares/Third_Party/FreeRTOS/Source/timers.c **** 				mtCOVERAGE_TEST_MARKER();
 756:Middlewares/Third_Party/FreeRTOS/Source/timers.c **** 			}
 757:Middlewares/Third_Party/FreeRTOS/Source/timers.c **** 
 758:Middlewares/Third_Party/FreeRTOS/Source/timers.c **** 			traceTIMER_COMMAND_RECEIVED( pxTimer, xMessage.xMessageID, xMessage.u.xTimerParameters.xMessageV
 759:Middlewares/Third_Party/FreeRTOS/Source/timers.c **** 
 760:Middlewares/Third_Party/FreeRTOS/Source/timers.c **** 			/* In this case the xTimerListsWereSwitched parameter is not used, but
 761:Middlewares/Third_Party/FreeRTOS/Source/timers.c **** 			it must be present in the function call.  prvSampleTimeNow() must be
 762:Middlewares/Third_Party/FreeRTOS/Source/timers.c **** 			called after the message is received from xTimerQueue so there is no
 763:Middlewares/Third_Party/FreeRTOS/Source/timers.c **** 			possibility of a higher priority task adding a message to the message
 764:Middlewares/Third_Party/FreeRTOS/Source/timers.c **** 			queue with a time that is ahead of the timer daemon task (because it
ARM GAS  C:\msys64\tmp\ccn4BJFy.s 			page 18


 765:Middlewares/Third_Party/FreeRTOS/Source/timers.c **** 			pre-empted the timer daemon task after the xTimeNow value was set). */
 766:Middlewares/Third_Party/FreeRTOS/Source/timers.c **** 			xTimeNow = prvSampleTimeNow( &xTimerListsWereSwitched );
 767:Middlewares/Third_Party/FreeRTOS/Source/timers.c **** 
 768:Middlewares/Third_Party/FreeRTOS/Source/timers.c **** 			switch( xMessage.xMessageID )
 769:Middlewares/Third_Party/FreeRTOS/Source/timers.c **** 			{
 770:Middlewares/Third_Party/FreeRTOS/Source/timers.c **** 				case tmrCOMMAND_START :
 771:Middlewares/Third_Party/FreeRTOS/Source/timers.c **** 				case tmrCOMMAND_START_FROM_ISR :
 772:Middlewares/Third_Party/FreeRTOS/Source/timers.c **** 				case tmrCOMMAND_RESET :
 773:Middlewares/Third_Party/FreeRTOS/Source/timers.c **** 				case tmrCOMMAND_RESET_FROM_ISR :
 774:Middlewares/Third_Party/FreeRTOS/Source/timers.c **** 				case tmrCOMMAND_START_DONT_TRACE :
 775:Middlewares/Third_Party/FreeRTOS/Source/timers.c **** 					/* Start or restart a timer. */
 776:Middlewares/Third_Party/FreeRTOS/Source/timers.c **** 					pxTimer->ucStatus |= tmrSTATUS_IS_ACTIVE;
 777:Middlewares/Third_Party/FreeRTOS/Source/timers.c **** 					if( prvInsertTimerInActiveList( pxTimer,  xMessage.u.xTimerParameters.xMessageValue + pxTimer-
 778:Middlewares/Third_Party/FreeRTOS/Source/timers.c **** 					{
 779:Middlewares/Third_Party/FreeRTOS/Source/timers.c **** 						/* The timer expired before it was added to the active
 780:Middlewares/Third_Party/FreeRTOS/Source/timers.c **** 						timer list.  Process it now. */
 781:Middlewares/Third_Party/FreeRTOS/Source/timers.c **** 						pxTimer->pxCallbackFunction( ( TimerHandle_t ) pxTimer );
 782:Middlewares/Third_Party/FreeRTOS/Source/timers.c **** 						traceTIMER_EXPIRED( pxTimer );
 783:Middlewares/Third_Party/FreeRTOS/Source/timers.c **** 
 784:Middlewares/Third_Party/FreeRTOS/Source/timers.c **** 						if( ( pxTimer->ucStatus & tmrSTATUS_IS_AUTORELOAD ) != 0 )
 785:Middlewares/Third_Party/FreeRTOS/Source/timers.c **** 						{
 786:Middlewares/Third_Party/FreeRTOS/Source/timers.c **** 							xResult = xTimerGenericCommand( pxTimer, tmrCOMMAND_START_DONT_TRACE, xMessage.u.xTimerParam
 787:Middlewares/Third_Party/FreeRTOS/Source/timers.c **** 							configASSERT( xResult );
 788:Middlewares/Third_Party/FreeRTOS/Source/timers.c **** 							( void ) xResult;
 789:Middlewares/Third_Party/FreeRTOS/Source/timers.c **** 						}
 790:Middlewares/Third_Party/FreeRTOS/Source/timers.c **** 						else
 791:Middlewares/Third_Party/FreeRTOS/Source/timers.c **** 						{
 792:Middlewares/Third_Party/FreeRTOS/Source/timers.c **** 							mtCOVERAGE_TEST_MARKER();
 793:Middlewares/Third_Party/FreeRTOS/Source/timers.c **** 						}
 794:Middlewares/Third_Party/FreeRTOS/Source/timers.c **** 					}
 795:Middlewares/Third_Party/FreeRTOS/Source/timers.c **** 					else
 796:Middlewares/Third_Party/FreeRTOS/Source/timers.c **** 					{
 797:Middlewares/Third_Party/FreeRTOS/Source/timers.c **** 						mtCOVERAGE_TEST_MARKER();
 798:Middlewares/Third_Party/FreeRTOS/Source/timers.c **** 					}
 799:Middlewares/Third_Party/FreeRTOS/Source/timers.c **** 					break;
 800:Middlewares/Third_Party/FreeRTOS/Source/timers.c **** 
 801:Middlewares/Third_Party/FreeRTOS/Source/timers.c **** 				case tmrCOMMAND_STOP :
 802:Middlewares/Third_Party/FreeRTOS/Source/timers.c **** 				case tmrCOMMAND_STOP_FROM_ISR :
 803:Middlewares/Third_Party/FreeRTOS/Source/timers.c **** 					/* The timer has already been removed from the active list. */
 804:Middlewares/Third_Party/FreeRTOS/Source/timers.c **** 					pxTimer->ucStatus &= ~tmrSTATUS_IS_ACTIVE;
 805:Middlewares/Third_Party/FreeRTOS/Source/timers.c **** 					break;
 806:Middlewares/Third_Party/FreeRTOS/Source/timers.c **** 
 807:Middlewares/Third_Party/FreeRTOS/Source/timers.c **** 				case tmrCOMMAND_CHANGE_PERIOD :
 808:Middlewares/Third_Party/FreeRTOS/Source/timers.c **** 				case tmrCOMMAND_CHANGE_PERIOD_FROM_ISR :
 809:Middlewares/Third_Party/FreeRTOS/Source/timers.c **** 					pxTimer->ucStatus |= tmrSTATUS_IS_ACTIVE;
 810:Middlewares/Third_Party/FreeRTOS/Source/timers.c **** 					pxTimer->xTimerPeriodInTicks = xMessage.u.xTimerParameters.xMessageValue;
 811:Middlewares/Third_Party/FreeRTOS/Source/timers.c **** 					configASSERT( ( pxTimer->xTimerPeriodInTicks > 0 ) );
 812:Middlewares/Third_Party/FreeRTOS/Source/timers.c **** 
 813:Middlewares/Third_Party/FreeRTOS/Source/timers.c **** 					/* The new period does not really have a reference, and can
 814:Middlewares/Third_Party/FreeRTOS/Source/timers.c **** 					be longer or shorter than the old one.  The command time is
 815:Middlewares/Third_Party/FreeRTOS/Source/timers.c **** 					therefore set to the current time, and as the period cannot
 816:Middlewares/Third_Party/FreeRTOS/Source/timers.c **** 					be zero the next expiry time can only be in the future,
 817:Middlewares/Third_Party/FreeRTOS/Source/timers.c **** 					meaning (unlike for the xTimerStart() case above) there is
 818:Middlewares/Third_Party/FreeRTOS/Source/timers.c **** 					no fail case that needs to be handled here. */
 819:Middlewares/Third_Party/FreeRTOS/Source/timers.c **** 					( void ) prvInsertTimerInActiveList( pxTimer, ( xTimeNow + pxTimer->xTimerPeriodInTicks ), xTi
 820:Middlewares/Third_Party/FreeRTOS/Source/timers.c **** 					break;
 821:Middlewares/Third_Party/FreeRTOS/Source/timers.c **** 
ARM GAS  C:\msys64\tmp\ccn4BJFy.s 			page 19


 822:Middlewares/Third_Party/FreeRTOS/Source/timers.c **** 				case tmrCOMMAND_DELETE :
 823:Middlewares/Third_Party/FreeRTOS/Source/timers.c **** 					#if ( configSUPPORT_DYNAMIC_ALLOCATION == 1 )
 824:Middlewares/Third_Party/FreeRTOS/Source/timers.c **** 					{
 825:Middlewares/Third_Party/FreeRTOS/Source/timers.c **** 						/* The timer has already been removed from the active list,
 826:Middlewares/Third_Party/FreeRTOS/Source/timers.c **** 						just free up the memory if the memory was dynamically
 827:Middlewares/Third_Party/FreeRTOS/Source/timers.c **** 						allocated. */
 828:Middlewares/Third_Party/FreeRTOS/Source/timers.c **** 						if( ( pxTimer->ucStatus & tmrSTATUS_IS_STATICALLY_ALLOCATED ) == ( uint8_t ) 0 )
 829:Middlewares/Third_Party/FreeRTOS/Source/timers.c **** 						{
 830:Middlewares/Third_Party/FreeRTOS/Source/timers.c **** 							vPortFree( pxTimer );
 831:Middlewares/Third_Party/FreeRTOS/Source/timers.c **** 						}
 832:Middlewares/Third_Party/FreeRTOS/Source/timers.c **** 						else
 833:Middlewares/Third_Party/FreeRTOS/Source/timers.c **** 						{
 834:Middlewares/Third_Party/FreeRTOS/Source/timers.c **** 							pxTimer->ucStatus &= ~tmrSTATUS_IS_ACTIVE;
 835:Middlewares/Third_Party/FreeRTOS/Source/timers.c **** 						}
 836:Middlewares/Third_Party/FreeRTOS/Source/timers.c **** 					}
 837:Middlewares/Third_Party/FreeRTOS/Source/timers.c **** 					#else
 838:Middlewares/Third_Party/FreeRTOS/Source/timers.c **** 					{
 839:Middlewares/Third_Party/FreeRTOS/Source/timers.c **** 						/* If dynamic allocation is not enabled, the memory
 840:Middlewares/Third_Party/FreeRTOS/Source/timers.c **** 						could not have been dynamically allocated. So there is
 841:Middlewares/Third_Party/FreeRTOS/Source/timers.c **** 						no need to free the memory - just mark the timer as
 842:Middlewares/Third_Party/FreeRTOS/Source/timers.c **** 						"not active". */
 843:Middlewares/Third_Party/FreeRTOS/Source/timers.c **** 						pxTimer->ucStatus &= ~tmrSTATUS_IS_ACTIVE;
 844:Middlewares/Third_Party/FreeRTOS/Source/timers.c **** 					}
 845:Middlewares/Third_Party/FreeRTOS/Source/timers.c **** 					#endif /* configSUPPORT_DYNAMIC_ALLOCATION */
 846:Middlewares/Third_Party/FreeRTOS/Source/timers.c **** 					break;
 847:Middlewares/Third_Party/FreeRTOS/Source/timers.c **** 
 848:Middlewares/Third_Party/FreeRTOS/Source/timers.c **** 				default	:
 849:Middlewares/Third_Party/FreeRTOS/Source/timers.c **** 					/* Don't expect to get here. */
 850:Middlewares/Third_Party/FreeRTOS/Source/timers.c **** 					break;
 851:Middlewares/Third_Party/FreeRTOS/Source/timers.c **** 			}
 852:Middlewares/Third_Party/FreeRTOS/Source/timers.c **** 		}
 853:Middlewares/Third_Party/FreeRTOS/Source/timers.c **** 	}
 854:Middlewares/Third_Party/FreeRTOS/Source/timers.c **** }
 855:Middlewares/Third_Party/FreeRTOS/Source/timers.c **** /*-----------------------------------------------------------*/
 856:Middlewares/Third_Party/FreeRTOS/Source/timers.c **** 
 857:Middlewares/Third_Party/FreeRTOS/Source/timers.c **** static void prvSwitchTimerLists( void )
 858:Middlewares/Third_Party/FreeRTOS/Source/timers.c **** {
 859:Middlewares/Third_Party/FreeRTOS/Source/timers.c **** TickType_t xNextExpireTime, xReloadTime;
 860:Middlewares/Third_Party/FreeRTOS/Source/timers.c **** List_t *pxTemp;
 861:Middlewares/Third_Party/FreeRTOS/Source/timers.c **** Timer_t *pxTimer;
 862:Middlewares/Third_Party/FreeRTOS/Source/timers.c **** BaseType_t xResult;
 863:Middlewares/Third_Party/FreeRTOS/Source/timers.c **** 
 864:Middlewares/Third_Party/FreeRTOS/Source/timers.c **** 	/* The tick count has overflowed.  The timer lists must be switched.
 865:Middlewares/Third_Party/FreeRTOS/Source/timers.c **** 	If there are any timers still referenced from the current timer list
 866:Middlewares/Third_Party/FreeRTOS/Source/timers.c **** 	then they must have expired and should be processed before the lists
 867:Middlewares/Third_Party/FreeRTOS/Source/timers.c **** 	are switched. */
 868:Middlewares/Third_Party/FreeRTOS/Source/timers.c **** 	while( listLIST_IS_EMPTY( pxCurrentTimerList ) == pdFALSE )
 869:Middlewares/Third_Party/FreeRTOS/Source/timers.c **** 	{
 870:Middlewares/Third_Party/FreeRTOS/Source/timers.c **** 		xNextExpireTime = listGET_ITEM_VALUE_OF_HEAD_ENTRY( pxCurrentTimerList );
 871:Middlewares/Third_Party/FreeRTOS/Source/timers.c **** 
 872:Middlewares/Third_Party/FreeRTOS/Source/timers.c **** 		/* Remove the timer from the list. */
 873:Middlewares/Third_Party/FreeRTOS/Source/timers.c **** 		pxTimer = ( Timer_t * ) listGET_OWNER_OF_HEAD_ENTRY( pxCurrentTimerList ); /*lint !e9087 !e9079 v
 874:Middlewares/Third_Party/FreeRTOS/Source/timers.c **** 		( void ) uxListRemove( &( pxTimer->xTimerListItem ) );
 875:Middlewares/Third_Party/FreeRTOS/Source/timers.c **** 		traceTIMER_EXPIRED( pxTimer );
 876:Middlewares/Third_Party/FreeRTOS/Source/timers.c **** 
 877:Middlewares/Third_Party/FreeRTOS/Source/timers.c **** 		/* Execute its callback, then send a command to restart the timer if
 878:Middlewares/Third_Party/FreeRTOS/Source/timers.c **** 		it is an auto-reload timer.  It cannot be restarted here as the lists
ARM GAS  C:\msys64\tmp\ccn4BJFy.s 			page 20


 879:Middlewares/Third_Party/FreeRTOS/Source/timers.c **** 		have not yet been switched. */
 880:Middlewares/Third_Party/FreeRTOS/Source/timers.c **** 		pxTimer->pxCallbackFunction( ( TimerHandle_t ) pxTimer );
 881:Middlewares/Third_Party/FreeRTOS/Source/timers.c **** 
 882:Middlewares/Third_Party/FreeRTOS/Source/timers.c **** 		if( ( pxTimer->ucStatus & tmrSTATUS_IS_AUTORELOAD ) != 0 )
 883:Middlewares/Third_Party/FreeRTOS/Source/timers.c **** 		{
 884:Middlewares/Third_Party/FreeRTOS/Source/timers.c **** 			/* Calculate the reload value, and if the reload value results in
 885:Middlewares/Third_Party/FreeRTOS/Source/timers.c **** 			the timer going into the same timer list then it has already expired
 886:Middlewares/Third_Party/FreeRTOS/Source/timers.c **** 			and the timer should be re-inserted into the current list so it is
 887:Middlewares/Third_Party/FreeRTOS/Source/timers.c **** 			processed again within this loop.  Otherwise a command should be sent
 888:Middlewares/Third_Party/FreeRTOS/Source/timers.c **** 			to restart the timer to ensure it is only inserted into a list after
 889:Middlewares/Third_Party/FreeRTOS/Source/timers.c **** 			the lists have been swapped. */
 890:Middlewares/Third_Party/FreeRTOS/Source/timers.c **** 			xReloadTime = ( xNextExpireTime + pxTimer->xTimerPeriodInTicks );
 891:Middlewares/Third_Party/FreeRTOS/Source/timers.c **** 			if( xReloadTime > xNextExpireTime )
 892:Middlewares/Third_Party/FreeRTOS/Source/timers.c **** 			{
 893:Middlewares/Third_Party/FreeRTOS/Source/timers.c **** 				listSET_LIST_ITEM_VALUE( &( pxTimer->xTimerListItem ), xReloadTime );
 894:Middlewares/Third_Party/FreeRTOS/Source/timers.c **** 				listSET_LIST_ITEM_OWNER( &( pxTimer->xTimerListItem ), pxTimer );
 895:Middlewares/Third_Party/FreeRTOS/Source/timers.c **** 				vListInsert( pxCurrentTimerList, &( pxTimer->xTimerListItem ) );
 896:Middlewares/Third_Party/FreeRTOS/Source/timers.c **** 			}
 897:Middlewares/Third_Party/FreeRTOS/Source/timers.c **** 			else
 898:Middlewares/Third_Party/FreeRTOS/Source/timers.c **** 			{
 899:Middlewares/Third_Party/FreeRTOS/Source/timers.c **** 				xResult = xTimerGenericCommand( pxTimer, tmrCOMMAND_START_DONT_TRACE, xNextExpireTime, NULL, tm
 900:Middlewares/Third_Party/FreeRTOS/Source/timers.c **** 				configASSERT( xResult );
 901:Middlewares/Third_Party/FreeRTOS/Source/timers.c **** 				( void ) xResult;
 902:Middlewares/Third_Party/FreeRTOS/Source/timers.c **** 			}
 903:Middlewares/Third_Party/FreeRTOS/Source/timers.c **** 		}
 904:Middlewares/Third_Party/FreeRTOS/Source/timers.c **** 		else
 905:Middlewares/Third_Party/FreeRTOS/Source/timers.c **** 		{
 906:Middlewares/Third_Party/FreeRTOS/Source/timers.c **** 			mtCOVERAGE_TEST_MARKER();
 907:Middlewares/Third_Party/FreeRTOS/Source/timers.c **** 		}
 908:Middlewares/Third_Party/FreeRTOS/Source/timers.c **** 	}
 909:Middlewares/Third_Party/FreeRTOS/Source/timers.c **** 
 910:Middlewares/Third_Party/FreeRTOS/Source/timers.c **** 	pxTemp = pxCurrentTimerList;
 911:Middlewares/Third_Party/FreeRTOS/Source/timers.c **** 	pxCurrentTimerList = pxOverflowTimerList;
 912:Middlewares/Third_Party/FreeRTOS/Source/timers.c **** 	pxOverflowTimerList = pxTemp;
 913:Middlewares/Third_Party/FreeRTOS/Source/timers.c **** }
 914:Middlewares/Third_Party/FreeRTOS/Source/timers.c **** /*-----------------------------------------------------------*/
 915:Middlewares/Third_Party/FreeRTOS/Source/timers.c **** 
 916:Middlewares/Third_Party/FreeRTOS/Source/timers.c **** static void prvCheckForValidListAndQueue( void )
 917:Middlewares/Third_Party/FreeRTOS/Source/timers.c **** {
 193              		.loc 1 917 1 is_stmt 1 view -0
 194              		.cfi_startproc
 195              		@ args = 0, pretend = 0, frame = 0
 196              		@ frame_needed = 0, uses_anonymous_args = 0
 197 0000 30B5     		push	{r4, r5, lr}
 198              	.LCFI1:
 199              		.cfi_def_cfa_offset 12
 200              		.cfi_offset 4, -12
 201              		.cfi_offset 5, -8
 202              		.cfi_offset 14, -4
 203 0002 83B0     		sub	sp, sp, #12
 204              	.LCFI2:
 205              		.cfi_def_cfa_offset 24
 918:Middlewares/Third_Party/FreeRTOS/Source/timers.c **** 	/* Check that the list from which active timers are referenced, and the
 919:Middlewares/Third_Party/FreeRTOS/Source/timers.c **** 	queue used to communicate with the timer service, have been
 920:Middlewares/Third_Party/FreeRTOS/Source/timers.c **** 	initialised. */
 921:Middlewares/Third_Party/FreeRTOS/Source/timers.c **** 	taskENTER_CRITICAL();
 206              		.loc 1 921 2 view .LVU45
ARM GAS  C:\msys64\tmp\ccn4BJFy.s 			page 21


 207 0004 FFF7FEFF 		bl	vPortEnterCritical
 208              	.LVL21:
 922:Middlewares/Third_Party/FreeRTOS/Source/timers.c **** 	{
 923:Middlewares/Third_Party/FreeRTOS/Source/timers.c **** 		if( xTimerQueue == NULL )
 209              		.loc 1 923 3 view .LVU46
 210              		.loc 1 923 19 is_stmt 0 view .LVU47
 211 0008 114B     		ldr	r3, .L22
 212 000a 1B68     		ldr	r3, [r3]
 213              		.loc 1 923 5 view .LVU48
 214 000c 1BB1     		cbz	r3, .L21
 215              	.L19:
 924:Middlewares/Third_Party/FreeRTOS/Source/timers.c **** 		{
 925:Middlewares/Third_Party/FreeRTOS/Source/timers.c **** 			vListInitialise( &xActiveTimerList1 );
 926:Middlewares/Third_Party/FreeRTOS/Source/timers.c **** 			vListInitialise( &xActiveTimerList2 );
 927:Middlewares/Third_Party/FreeRTOS/Source/timers.c **** 			pxCurrentTimerList = &xActiveTimerList1;
 928:Middlewares/Third_Party/FreeRTOS/Source/timers.c **** 			pxOverflowTimerList = &xActiveTimerList2;
 929:Middlewares/Third_Party/FreeRTOS/Source/timers.c **** 
 930:Middlewares/Third_Party/FreeRTOS/Source/timers.c **** 			#if( configSUPPORT_STATIC_ALLOCATION == 1 )
 931:Middlewares/Third_Party/FreeRTOS/Source/timers.c **** 			{
 932:Middlewares/Third_Party/FreeRTOS/Source/timers.c **** 				/* The timer queue is allocated statically in case
 933:Middlewares/Third_Party/FreeRTOS/Source/timers.c **** 				configSUPPORT_DYNAMIC_ALLOCATION is 0. */
 934:Middlewares/Third_Party/FreeRTOS/Source/timers.c **** 				static StaticQueue_t xStaticTimerQueue; /*lint !e956 Ok to declare in this manner to prevent ad
 935:Middlewares/Third_Party/FreeRTOS/Source/timers.c **** 				static uint8_t ucStaticTimerQueueStorage[ ( size_t ) configTIMER_QUEUE_LENGTH * sizeof( DaemonT
 936:Middlewares/Third_Party/FreeRTOS/Source/timers.c **** 
 937:Middlewares/Third_Party/FreeRTOS/Source/timers.c **** 				xTimerQueue = xQueueCreateStatic( ( UBaseType_t ) configTIMER_QUEUE_LENGTH, ( UBaseType_t ) siz
 938:Middlewares/Third_Party/FreeRTOS/Source/timers.c **** 			}
 939:Middlewares/Third_Party/FreeRTOS/Source/timers.c **** 			#else
 940:Middlewares/Third_Party/FreeRTOS/Source/timers.c **** 			{
 941:Middlewares/Third_Party/FreeRTOS/Source/timers.c **** 				xTimerQueue = xQueueCreate( ( UBaseType_t ) configTIMER_QUEUE_LENGTH, sizeof( DaemonTaskMessage
 942:Middlewares/Third_Party/FreeRTOS/Source/timers.c **** 			}
 943:Middlewares/Third_Party/FreeRTOS/Source/timers.c **** 			#endif
 944:Middlewares/Third_Party/FreeRTOS/Source/timers.c **** 
 945:Middlewares/Third_Party/FreeRTOS/Source/timers.c **** 			#if ( configQUEUE_REGISTRY_SIZE > 0 )
 946:Middlewares/Third_Party/FreeRTOS/Source/timers.c **** 			{
 947:Middlewares/Third_Party/FreeRTOS/Source/timers.c **** 				if( xTimerQueue != NULL )
 948:Middlewares/Third_Party/FreeRTOS/Source/timers.c **** 				{
 949:Middlewares/Third_Party/FreeRTOS/Source/timers.c **** 					vQueueAddToRegistry( xTimerQueue, "TmrQ" );
 950:Middlewares/Third_Party/FreeRTOS/Source/timers.c **** 				}
 951:Middlewares/Third_Party/FreeRTOS/Source/timers.c **** 				else
 952:Middlewares/Third_Party/FreeRTOS/Source/timers.c **** 				{
 953:Middlewares/Third_Party/FreeRTOS/Source/timers.c **** 					mtCOVERAGE_TEST_MARKER();
 954:Middlewares/Third_Party/FreeRTOS/Source/timers.c **** 				}
 955:Middlewares/Third_Party/FreeRTOS/Source/timers.c **** 			}
 956:Middlewares/Third_Party/FreeRTOS/Source/timers.c **** 			#endif /* configQUEUE_REGISTRY_SIZE */
 957:Middlewares/Third_Party/FreeRTOS/Source/timers.c **** 		}
 958:Middlewares/Third_Party/FreeRTOS/Source/timers.c **** 		else
 959:Middlewares/Third_Party/FreeRTOS/Source/timers.c **** 		{
 960:Middlewares/Third_Party/FreeRTOS/Source/timers.c **** 			mtCOVERAGE_TEST_MARKER();
 216              		.loc 1 960 28 is_stmt 1 view .LVU49
 961:Middlewares/Third_Party/FreeRTOS/Source/timers.c **** 		}
 962:Middlewares/Third_Party/FreeRTOS/Source/timers.c **** 	}
 963:Middlewares/Third_Party/FreeRTOS/Source/timers.c **** 	taskEXIT_CRITICAL();
 217              		.loc 1 963 2 view .LVU50
 218 000e FFF7FEFF 		bl	vPortExitCritical
 219              	.LVL22:
 964:Middlewares/Third_Party/FreeRTOS/Source/timers.c **** }
 220              		.loc 1 964 1 is_stmt 0 view .LVU51
ARM GAS  C:\msys64\tmp\ccn4BJFy.s 			page 22


 221 0012 03B0     		add	sp, sp, #12
 222              	.LCFI3:
 223              		.cfi_remember_state
 224              		.cfi_def_cfa_offset 12
 225              		@ sp needed
 226 0014 30BD     		pop	{r4, r5, pc}
 227              	.L21:
 228              	.LCFI4:
 229              		.cfi_restore_state
 925:Middlewares/Third_Party/FreeRTOS/Source/timers.c **** 			vListInitialise( &xActiveTimerList2 );
 230              		.loc 1 925 4 is_stmt 1 view .LVU52
 231 0016 0F4D     		ldr	r5, .L22+4
 232 0018 2846     		mov	r0, r5
 233 001a FFF7FEFF 		bl	vListInitialise
 234              	.LVL23:
 926:Middlewares/Third_Party/FreeRTOS/Source/timers.c **** 			pxCurrentTimerList = &xActiveTimerList1;
 235              		.loc 1 926 4 view .LVU53
 236 001e 0E4C     		ldr	r4, .L22+8
 237 0020 2046     		mov	r0, r4
 238 0022 FFF7FEFF 		bl	vListInitialise
 239              	.LVL24:
 927:Middlewares/Third_Party/FreeRTOS/Source/timers.c **** 			pxOverflowTimerList = &xActiveTimerList2;
 240              		.loc 1 927 4 view .LVU54
 927:Middlewares/Third_Party/FreeRTOS/Source/timers.c **** 			pxOverflowTimerList = &xActiveTimerList2;
 241              		.loc 1 927 23 is_stmt 0 view .LVU55
 242 0026 0D4B     		ldr	r3, .L22+12
 243 0028 1D60     		str	r5, [r3]
 928:Middlewares/Third_Party/FreeRTOS/Source/timers.c **** 
 244              		.loc 1 928 4 is_stmt 1 view .LVU56
 928:Middlewares/Third_Party/FreeRTOS/Source/timers.c **** 
 245              		.loc 1 928 24 is_stmt 0 view .LVU57
 246 002a 0D4B     		ldr	r3, .L22+16
 247 002c 1C60     		str	r4, [r3]
 248              	.LBB43:
 934:Middlewares/Third_Party/FreeRTOS/Source/timers.c **** 				static uint8_t ucStaticTimerQueueStorage[ ( size_t ) configTIMER_QUEUE_LENGTH * sizeof( DaemonT
 249              		.loc 1 934 5 is_stmt 1 view .LVU58
 935:Middlewares/Third_Party/FreeRTOS/Source/timers.c **** 
 250              		.loc 1 935 5 view .LVU59
 937:Middlewares/Third_Party/FreeRTOS/Source/timers.c **** 			}
 251              		.loc 1 937 5 view .LVU60
 937:Middlewares/Third_Party/FreeRTOS/Source/timers.c **** 			}
 252              		.loc 1 937 19 is_stmt 0 view .LVU61
 253 002e 0023     		movs	r3, #0
 254 0030 0093     		str	r3, [sp]
 255 0032 0C4B     		ldr	r3, .L22+20
 256 0034 0C4A     		ldr	r2, .L22+24
 257 0036 1021     		movs	r1, #16
 258 0038 0A20     		movs	r0, #10
 259 003a FFF7FEFF 		bl	xQueueGenericCreateStatic
 260              	.LVL25:
 937:Middlewares/Third_Party/FreeRTOS/Source/timers.c **** 			}
 261              		.loc 1 937 17 view .LVU62
 262 003e 044B     		ldr	r3, .L22
 263 0040 1860     		str	r0, [r3]
 264              	.LBE43:
 947:Middlewares/Third_Party/FreeRTOS/Source/timers.c **** 				{
 265              		.loc 1 947 5 is_stmt 1 view .LVU63
ARM GAS  C:\msys64\tmp\ccn4BJFy.s 			page 23


 947:Middlewares/Third_Party/FreeRTOS/Source/timers.c **** 				{
 266              		.loc 1 947 7 is_stmt 0 view .LVU64
 267 0042 0028     		cmp	r0, #0
 268 0044 E3D0     		beq	.L19
 949:Middlewares/Third_Party/FreeRTOS/Source/timers.c **** 				}
 269              		.loc 1 949 6 is_stmt 1 view .LVU65
 270 0046 0949     		ldr	r1, .L22+28
 271 0048 FFF7FEFF 		bl	vQueueAddToRegistry
 272              	.LVL26:
 273 004c DFE7     		b	.L19
 274              	.L23:
 275 004e 00BF     		.align	2
 276              	.L22:
 277 0050 00000000 		.word	.LANCHOR2
 278 0054 00000000 		.word	.LANCHOR3
 279 0058 00000000 		.word	.LANCHOR4
 280 005c 00000000 		.word	.LANCHOR0
 281 0060 00000000 		.word	.LANCHOR1
 282 0064 00000000 		.word	.LANCHOR5
 283 0068 00000000 		.word	.LANCHOR6
 284 006c 00000000 		.word	.LC0
 285              		.cfi_endproc
 286              	.LFE22:
 288              		.section	.text.prvInitialiseNewTimer,"ax",%progbits
 289              		.align	1
 290              		.syntax unified
 291              		.thumb
 292              		.thumb_func
 294              	prvInitialiseNewTimer:
 295              	.LVL27:
 296              	.LFB7:
 355:Middlewares/Third_Party/FreeRTOS/Source/timers.c **** 	/* 0 is not a valid value for xTimerPeriodInTicks. */
 297              		.loc 1 355 1 view -0
 298              		.cfi_startproc
 299              		@ args = 8, pretend = 0, frame = 0
 300              		@ frame_needed = 0, uses_anonymous_args = 0
 355:Middlewares/Third_Party/FreeRTOS/Source/timers.c **** 	/* 0 is not a valid value for xTimerPeriodInTicks. */
 301              		.loc 1 355 1 is_stmt 0 view .LVU67
 302 0000 2DE9F041 		push	{r4, r5, r6, r7, r8, lr}
 303              	.LCFI5:
 304              		.cfi_def_cfa_offset 24
 305              		.cfi_offset 4, -24
 306              		.cfi_offset 5, -20
 307              		.cfi_offset 6, -16
 308              		.cfi_offset 7, -12
 309              		.cfi_offset 8, -8
 310              		.cfi_offset 14, -4
 311 0004 079F     		ldr	r7, [sp, #28]
 357:Middlewares/Third_Party/FreeRTOS/Source/timers.c **** 
 312              		.loc 1 357 2 is_stmt 1 view .LVU68
 313 0006 51B9     		cbnz	r1, .L25
 357:Middlewares/Third_Party/FreeRTOS/Source/timers.c **** 
 314              		.loc 1 357 2 view .LVU69
 315              	.LBB44:
 316              	.LBI44:
 317              		.file 2 "Middlewares/Third_Party/FreeRTOS/Source/portable/GCC/ARM_CM7/r0p1/portmacro.h"
   1:Middlewares/Third_Party/FreeRTOS/Source/portable/GCC/ARM_CM7/r0p1/portmacro.h **** /*
ARM GAS  C:\msys64\tmp\ccn4BJFy.s 			page 24


   2:Middlewares/Third_Party/FreeRTOS/Source/portable/GCC/ARM_CM7/r0p1/portmacro.h ****  * FreeRTOS Kernel V10.2.1
   3:Middlewares/Third_Party/FreeRTOS/Source/portable/GCC/ARM_CM7/r0p1/portmacro.h ****  * Copyright (C) 2019 Amazon.com, Inc. or its affiliates.  All Rights Reserved.
   4:Middlewares/Third_Party/FreeRTOS/Source/portable/GCC/ARM_CM7/r0p1/portmacro.h ****  *
   5:Middlewares/Third_Party/FreeRTOS/Source/portable/GCC/ARM_CM7/r0p1/portmacro.h ****  * Permission is hereby granted, free of charge, to any person obtaining a copy of
   6:Middlewares/Third_Party/FreeRTOS/Source/portable/GCC/ARM_CM7/r0p1/portmacro.h ****  * this software and associated documentation files (the "Software"), to deal in
   7:Middlewares/Third_Party/FreeRTOS/Source/portable/GCC/ARM_CM7/r0p1/portmacro.h ****  * the Software without restriction, including without limitation the rights to
   8:Middlewares/Third_Party/FreeRTOS/Source/portable/GCC/ARM_CM7/r0p1/portmacro.h ****  * use, copy, modify, merge, publish, distribute, sublicense, and/or sell copies of
   9:Middlewares/Third_Party/FreeRTOS/Source/portable/GCC/ARM_CM7/r0p1/portmacro.h ****  * the Software, and to permit persons to whom the Software is furnished to do so,
  10:Middlewares/Third_Party/FreeRTOS/Source/portable/GCC/ARM_CM7/r0p1/portmacro.h ****  * subject to the following conditions:
  11:Middlewares/Third_Party/FreeRTOS/Source/portable/GCC/ARM_CM7/r0p1/portmacro.h ****  *
  12:Middlewares/Third_Party/FreeRTOS/Source/portable/GCC/ARM_CM7/r0p1/portmacro.h ****  * The above copyright notice and this permission notice shall be included in all
  13:Middlewares/Third_Party/FreeRTOS/Source/portable/GCC/ARM_CM7/r0p1/portmacro.h ****  * copies or substantial portions of the Software.
  14:Middlewares/Third_Party/FreeRTOS/Source/portable/GCC/ARM_CM7/r0p1/portmacro.h ****  *
  15:Middlewares/Third_Party/FreeRTOS/Source/portable/GCC/ARM_CM7/r0p1/portmacro.h ****  * THE SOFTWARE IS PROVIDED "AS IS", WITHOUT WARRANTY OF ANY KIND, EXPRESS OR
  16:Middlewares/Third_Party/FreeRTOS/Source/portable/GCC/ARM_CM7/r0p1/portmacro.h ****  * IMPLIED, INCLUDING BUT NOT LIMITED TO THE WARRANTIES OF MERCHANTABILITY, FITNESS
  17:Middlewares/Third_Party/FreeRTOS/Source/portable/GCC/ARM_CM7/r0p1/portmacro.h ****  * FOR A PARTICULAR PURPOSE AND NONINFRINGEMENT. IN NO EVENT SHALL THE AUTHORS OR
  18:Middlewares/Third_Party/FreeRTOS/Source/portable/GCC/ARM_CM7/r0p1/portmacro.h ****  * COPYRIGHT HOLDERS BE LIABLE FOR ANY CLAIM, DAMAGES OR OTHER LIABILITY, WHETHER
  19:Middlewares/Third_Party/FreeRTOS/Source/portable/GCC/ARM_CM7/r0p1/portmacro.h ****  * IN AN ACTION OF CONTRACT, TORT OR OTHERWISE, ARISING FROM, OUT OF OR IN
  20:Middlewares/Third_Party/FreeRTOS/Source/portable/GCC/ARM_CM7/r0p1/portmacro.h ****  * CONNECTION WITH THE SOFTWARE OR THE USE OR OTHER DEALINGS IN THE SOFTWARE.
  21:Middlewares/Third_Party/FreeRTOS/Source/portable/GCC/ARM_CM7/r0p1/portmacro.h ****  *
  22:Middlewares/Third_Party/FreeRTOS/Source/portable/GCC/ARM_CM7/r0p1/portmacro.h ****  * http://www.FreeRTOS.org
  23:Middlewares/Third_Party/FreeRTOS/Source/portable/GCC/ARM_CM7/r0p1/portmacro.h ****  * http://aws.amazon.com/freertos
  24:Middlewares/Third_Party/FreeRTOS/Source/portable/GCC/ARM_CM7/r0p1/portmacro.h ****  *
  25:Middlewares/Third_Party/FreeRTOS/Source/portable/GCC/ARM_CM7/r0p1/portmacro.h ****  * 1 tab == 4 spaces!
  26:Middlewares/Third_Party/FreeRTOS/Source/portable/GCC/ARM_CM7/r0p1/portmacro.h ****  */
  27:Middlewares/Third_Party/FreeRTOS/Source/portable/GCC/ARM_CM7/r0p1/portmacro.h **** 
  28:Middlewares/Third_Party/FreeRTOS/Source/portable/GCC/ARM_CM7/r0p1/portmacro.h **** 
  29:Middlewares/Third_Party/FreeRTOS/Source/portable/GCC/ARM_CM7/r0p1/portmacro.h **** #ifndef PORTMACRO_H
  30:Middlewares/Third_Party/FreeRTOS/Source/portable/GCC/ARM_CM7/r0p1/portmacro.h **** #define PORTMACRO_H
  31:Middlewares/Third_Party/FreeRTOS/Source/portable/GCC/ARM_CM7/r0p1/portmacro.h **** 
  32:Middlewares/Third_Party/FreeRTOS/Source/portable/GCC/ARM_CM7/r0p1/portmacro.h **** #ifdef __cplusplus
  33:Middlewares/Third_Party/FreeRTOS/Source/portable/GCC/ARM_CM7/r0p1/portmacro.h **** extern "C" {
  34:Middlewares/Third_Party/FreeRTOS/Source/portable/GCC/ARM_CM7/r0p1/portmacro.h **** #endif
  35:Middlewares/Third_Party/FreeRTOS/Source/portable/GCC/ARM_CM7/r0p1/portmacro.h **** 
  36:Middlewares/Third_Party/FreeRTOS/Source/portable/GCC/ARM_CM7/r0p1/portmacro.h **** /*-----------------------------------------------------------
  37:Middlewares/Third_Party/FreeRTOS/Source/portable/GCC/ARM_CM7/r0p1/portmacro.h ****  * Port specific definitions.
  38:Middlewares/Third_Party/FreeRTOS/Source/portable/GCC/ARM_CM7/r0p1/portmacro.h ****  *
  39:Middlewares/Third_Party/FreeRTOS/Source/portable/GCC/ARM_CM7/r0p1/portmacro.h ****  * The settings in this file configure FreeRTOS correctly for the
  40:Middlewares/Third_Party/FreeRTOS/Source/portable/GCC/ARM_CM7/r0p1/portmacro.h ****  * given hardware and compiler.
  41:Middlewares/Third_Party/FreeRTOS/Source/portable/GCC/ARM_CM7/r0p1/portmacro.h ****  *
  42:Middlewares/Third_Party/FreeRTOS/Source/portable/GCC/ARM_CM7/r0p1/portmacro.h ****  * These settings should not be altered.
  43:Middlewares/Third_Party/FreeRTOS/Source/portable/GCC/ARM_CM7/r0p1/portmacro.h ****  *-----------------------------------------------------------
  44:Middlewares/Third_Party/FreeRTOS/Source/portable/GCC/ARM_CM7/r0p1/portmacro.h ****  */
  45:Middlewares/Third_Party/FreeRTOS/Source/portable/GCC/ARM_CM7/r0p1/portmacro.h **** 
  46:Middlewares/Third_Party/FreeRTOS/Source/portable/GCC/ARM_CM7/r0p1/portmacro.h **** /* Type definitions. */
  47:Middlewares/Third_Party/FreeRTOS/Source/portable/GCC/ARM_CM7/r0p1/portmacro.h **** #define portCHAR		char
  48:Middlewares/Third_Party/FreeRTOS/Source/portable/GCC/ARM_CM7/r0p1/portmacro.h **** #define portFLOAT		float
  49:Middlewares/Third_Party/FreeRTOS/Source/portable/GCC/ARM_CM7/r0p1/portmacro.h **** #define portDOUBLE		double
  50:Middlewares/Third_Party/FreeRTOS/Source/portable/GCC/ARM_CM7/r0p1/portmacro.h **** #define portLONG		long
  51:Middlewares/Third_Party/FreeRTOS/Source/portable/GCC/ARM_CM7/r0p1/portmacro.h **** #define portSHORT		short
  52:Middlewares/Third_Party/FreeRTOS/Source/portable/GCC/ARM_CM7/r0p1/portmacro.h **** #define portSTACK_TYPE	uint32_t
  53:Middlewares/Third_Party/FreeRTOS/Source/portable/GCC/ARM_CM7/r0p1/portmacro.h **** #define portBASE_TYPE	long
  54:Middlewares/Third_Party/FreeRTOS/Source/portable/GCC/ARM_CM7/r0p1/portmacro.h **** 
  55:Middlewares/Third_Party/FreeRTOS/Source/portable/GCC/ARM_CM7/r0p1/portmacro.h **** typedef portSTACK_TYPE StackType_t;
  56:Middlewares/Third_Party/FreeRTOS/Source/portable/GCC/ARM_CM7/r0p1/portmacro.h **** typedef long BaseType_t;
  57:Middlewares/Third_Party/FreeRTOS/Source/portable/GCC/ARM_CM7/r0p1/portmacro.h **** typedef unsigned long UBaseType_t;
  58:Middlewares/Third_Party/FreeRTOS/Source/portable/GCC/ARM_CM7/r0p1/portmacro.h **** 
ARM GAS  C:\msys64\tmp\ccn4BJFy.s 			page 25


  59:Middlewares/Third_Party/FreeRTOS/Source/portable/GCC/ARM_CM7/r0p1/portmacro.h **** #if( configUSE_16_BIT_TICKS == 1 )
  60:Middlewares/Third_Party/FreeRTOS/Source/portable/GCC/ARM_CM7/r0p1/portmacro.h **** 	typedef uint16_t TickType_t;
  61:Middlewares/Third_Party/FreeRTOS/Source/portable/GCC/ARM_CM7/r0p1/portmacro.h **** 	#define portMAX_DELAY ( TickType_t ) 0xffff
  62:Middlewares/Third_Party/FreeRTOS/Source/portable/GCC/ARM_CM7/r0p1/portmacro.h **** #else
  63:Middlewares/Third_Party/FreeRTOS/Source/portable/GCC/ARM_CM7/r0p1/portmacro.h **** 	typedef uint32_t TickType_t;
  64:Middlewares/Third_Party/FreeRTOS/Source/portable/GCC/ARM_CM7/r0p1/portmacro.h **** 	#define portMAX_DELAY ( TickType_t ) 0xffffffffUL
  65:Middlewares/Third_Party/FreeRTOS/Source/portable/GCC/ARM_CM7/r0p1/portmacro.h **** 
  66:Middlewares/Third_Party/FreeRTOS/Source/portable/GCC/ARM_CM7/r0p1/portmacro.h **** 	/* 32-bit tick type on a 32-bit architecture, so reads of the tick count do
  67:Middlewares/Third_Party/FreeRTOS/Source/portable/GCC/ARM_CM7/r0p1/portmacro.h **** 	not need to be guarded with a critical section. */
  68:Middlewares/Third_Party/FreeRTOS/Source/portable/GCC/ARM_CM7/r0p1/portmacro.h **** 	#define portTICK_TYPE_IS_ATOMIC 1
  69:Middlewares/Third_Party/FreeRTOS/Source/portable/GCC/ARM_CM7/r0p1/portmacro.h **** #endif
  70:Middlewares/Third_Party/FreeRTOS/Source/portable/GCC/ARM_CM7/r0p1/portmacro.h **** /*-----------------------------------------------------------*/
  71:Middlewares/Third_Party/FreeRTOS/Source/portable/GCC/ARM_CM7/r0p1/portmacro.h **** 
  72:Middlewares/Third_Party/FreeRTOS/Source/portable/GCC/ARM_CM7/r0p1/portmacro.h **** /* Architecture specifics. */
  73:Middlewares/Third_Party/FreeRTOS/Source/portable/GCC/ARM_CM7/r0p1/portmacro.h **** #define portSTACK_GROWTH			( -1 )
  74:Middlewares/Third_Party/FreeRTOS/Source/portable/GCC/ARM_CM7/r0p1/portmacro.h **** #define portTICK_PERIOD_MS			( ( TickType_t ) 1000 / configTICK_RATE_HZ )
  75:Middlewares/Third_Party/FreeRTOS/Source/portable/GCC/ARM_CM7/r0p1/portmacro.h **** #define portBYTE_ALIGNMENT			8
  76:Middlewares/Third_Party/FreeRTOS/Source/portable/GCC/ARM_CM7/r0p1/portmacro.h **** /*-----------------------------------------------------------*/
  77:Middlewares/Third_Party/FreeRTOS/Source/portable/GCC/ARM_CM7/r0p1/portmacro.h **** 
  78:Middlewares/Third_Party/FreeRTOS/Source/portable/GCC/ARM_CM7/r0p1/portmacro.h **** /* Scheduler utilities. */
  79:Middlewares/Third_Party/FreeRTOS/Source/portable/GCC/ARM_CM7/r0p1/portmacro.h **** #define portYIELD() 															\
  80:Middlewares/Third_Party/FreeRTOS/Source/portable/GCC/ARM_CM7/r0p1/portmacro.h **** {																				\
  81:Middlewares/Third_Party/FreeRTOS/Source/portable/GCC/ARM_CM7/r0p1/portmacro.h **** 	/* Set a PendSV to request a context switch. */								\
  82:Middlewares/Third_Party/FreeRTOS/Source/portable/GCC/ARM_CM7/r0p1/portmacro.h **** 	portNVIC_INT_CTRL_REG = portNVIC_PENDSVSET_BIT;								\
  83:Middlewares/Third_Party/FreeRTOS/Source/portable/GCC/ARM_CM7/r0p1/portmacro.h **** 																				\
  84:Middlewares/Third_Party/FreeRTOS/Source/portable/GCC/ARM_CM7/r0p1/portmacro.h **** 	/* Barriers are normally not required but do ensure the code is completely	\
  85:Middlewares/Third_Party/FreeRTOS/Source/portable/GCC/ARM_CM7/r0p1/portmacro.h **** 	within the specified behaviour for the architecture. */						\
  86:Middlewares/Third_Party/FreeRTOS/Source/portable/GCC/ARM_CM7/r0p1/portmacro.h **** 	__asm volatile( "dsb" ::: "memory" );										\
  87:Middlewares/Third_Party/FreeRTOS/Source/portable/GCC/ARM_CM7/r0p1/portmacro.h **** 	__asm volatile( "isb" );													\
  88:Middlewares/Third_Party/FreeRTOS/Source/portable/GCC/ARM_CM7/r0p1/portmacro.h **** }
  89:Middlewares/Third_Party/FreeRTOS/Source/portable/GCC/ARM_CM7/r0p1/portmacro.h **** 
  90:Middlewares/Third_Party/FreeRTOS/Source/portable/GCC/ARM_CM7/r0p1/portmacro.h **** #define portNVIC_INT_CTRL_REG		( * ( ( volatile uint32_t * ) 0xe000ed04 ) )
  91:Middlewares/Third_Party/FreeRTOS/Source/portable/GCC/ARM_CM7/r0p1/portmacro.h **** #define portNVIC_PENDSVSET_BIT		( 1UL << 28UL )
  92:Middlewares/Third_Party/FreeRTOS/Source/portable/GCC/ARM_CM7/r0p1/portmacro.h **** #define portEND_SWITCHING_ISR( xSwitchRequired ) if( xSwitchRequired != pdFALSE ) portYIELD()
  93:Middlewares/Third_Party/FreeRTOS/Source/portable/GCC/ARM_CM7/r0p1/portmacro.h **** #define portYIELD_FROM_ISR( x ) portEND_SWITCHING_ISR( x )
  94:Middlewares/Third_Party/FreeRTOS/Source/portable/GCC/ARM_CM7/r0p1/portmacro.h **** /*-----------------------------------------------------------*/
  95:Middlewares/Third_Party/FreeRTOS/Source/portable/GCC/ARM_CM7/r0p1/portmacro.h **** 
  96:Middlewares/Third_Party/FreeRTOS/Source/portable/GCC/ARM_CM7/r0p1/portmacro.h **** /* Critical section management. */
  97:Middlewares/Third_Party/FreeRTOS/Source/portable/GCC/ARM_CM7/r0p1/portmacro.h **** extern void vPortEnterCritical( void );
  98:Middlewares/Third_Party/FreeRTOS/Source/portable/GCC/ARM_CM7/r0p1/portmacro.h **** extern void vPortExitCritical( void );
  99:Middlewares/Third_Party/FreeRTOS/Source/portable/GCC/ARM_CM7/r0p1/portmacro.h **** #define portSET_INTERRUPT_MASK_FROM_ISR()		ulPortRaiseBASEPRI()
 100:Middlewares/Third_Party/FreeRTOS/Source/portable/GCC/ARM_CM7/r0p1/portmacro.h **** #define portCLEAR_INTERRUPT_MASK_FROM_ISR(x)	vPortSetBASEPRI(x)
 101:Middlewares/Third_Party/FreeRTOS/Source/portable/GCC/ARM_CM7/r0p1/portmacro.h **** #define portDISABLE_INTERRUPTS()				vPortRaiseBASEPRI()
 102:Middlewares/Third_Party/FreeRTOS/Source/portable/GCC/ARM_CM7/r0p1/portmacro.h **** #define portENABLE_INTERRUPTS()					vPortSetBASEPRI(0)
 103:Middlewares/Third_Party/FreeRTOS/Source/portable/GCC/ARM_CM7/r0p1/portmacro.h **** #define portENTER_CRITICAL()					vPortEnterCritical()
 104:Middlewares/Third_Party/FreeRTOS/Source/portable/GCC/ARM_CM7/r0p1/portmacro.h **** #define portEXIT_CRITICAL()						vPortExitCritical()
 105:Middlewares/Third_Party/FreeRTOS/Source/portable/GCC/ARM_CM7/r0p1/portmacro.h **** 
 106:Middlewares/Third_Party/FreeRTOS/Source/portable/GCC/ARM_CM7/r0p1/portmacro.h **** /*-----------------------------------------------------------*/
 107:Middlewares/Third_Party/FreeRTOS/Source/portable/GCC/ARM_CM7/r0p1/portmacro.h **** 
 108:Middlewares/Third_Party/FreeRTOS/Source/portable/GCC/ARM_CM7/r0p1/portmacro.h **** /* Task function macros as described on the FreeRTOS.org WEB site.  These are
 109:Middlewares/Third_Party/FreeRTOS/Source/portable/GCC/ARM_CM7/r0p1/portmacro.h **** not necessary for to use this port.  They are defined so the common demo files
 110:Middlewares/Third_Party/FreeRTOS/Source/portable/GCC/ARM_CM7/r0p1/portmacro.h **** (which build with all the ports) will build. */
 111:Middlewares/Third_Party/FreeRTOS/Source/portable/GCC/ARM_CM7/r0p1/portmacro.h **** #define portTASK_FUNCTION_PROTO( vFunction, pvParameters ) void vFunction( void *pvParameters )
 112:Middlewares/Third_Party/FreeRTOS/Source/portable/GCC/ARM_CM7/r0p1/portmacro.h **** #define portTASK_FUNCTION( vFunction, pvParameters ) void vFunction( void *pvParameters )
 113:Middlewares/Third_Party/FreeRTOS/Source/portable/GCC/ARM_CM7/r0p1/portmacro.h **** /*-----------------------------------------------------------*/
 114:Middlewares/Third_Party/FreeRTOS/Source/portable/GCC/ARM_CM7/r0p1/portmacro.h **** 
 115:Middlewares/Third_Party/FreeRTOS/Source/portable/GCC/ARM_CM7/r0p1/portmacro.h **** /* Tickless idle/low power functionality. */
ARM GAS  C:\msys64\tmp\ccn4BJFy.s 			page 26


 116:Middlewares/Third_Party/FreeRTOS/Source/portable/GCC/ARM_CM7/r0p1/portmacro.h **** #ifndef portSUPPRESS_TICKS_AND_SLEEP
 117:Middlewares/Third_Party/FreeRTOS/Source/portable/GCC/ARM_CM7/r0p1/portmacro.h **** 	extern void vPortSuppressTicksAndSleep( TickType_t xExpectedIdleTime );
 118:Middlewares/Third_Party/FreeRTOS/Source/portable/GCC/ARM_CM7/r0p1/portmacro.h **** 	#define portSUPPRESS_TICKS_AND_SLEEP( xExpectedIdleTime ) vPortSuppressTicksAndSleep( xExpectedIdl
 119:Middlewares/Third_Party/FreeRTOS/Source/portable/GCC/ARM_CM7/r0p1/portmacro.h **** #endif
 120:Middlewares/Third_Party/FreeRTOS/Source/portable/GCC/ARM_CM7/r0p1/portmacro.h **** /*-----------------------------------------------------------*/
 121:Middlewares/Third_Party/FreeRTOS/Source/portable/GCC/ARM_CM7/r0p1/portmacro.h **** 
 122:Middlewares/Third_Party/FreeRTOS/Source/portable/GCC/ARM_CM7/r0p1/portmacro.h **** /* Architecture specific optimisations. */
 123:Middlewares/Third_Party/FreeRTOS/Source/portable/GCC/ARM_CM7/r0p1/portmacro.h **** #ifndef configUSE_PORT_OPTIMISED_TASK_SELECTION
 124:Middlewares/Third_Party/FreeRTOS/Source/portable/GCC/ARM_CM7/r0p1/portmacro.h **** 	#define configUSE_PORT_OPTIMISED_TASK_SELECTION 1
 125:Middlewares/Third_Party/FreeRTOS/Source/portable/GCC/ARM_CM7/r0p1/portmacro.h **** #endif
 126:Middlewares/Third_Party/FreeRTOS/Source/portable/GCC/ARM_CM7/r0p1/portmacro.h **** 
 127:Middlewares/Third_Party/FreeRTOS/Source/portable/GCC/ARM_CM7/r0p1/portmacro.h **** #if configUSE_PORT_OPTIMISED_TASK_SELECTION == 1
 128:Middlewares/Third_Party/FreeRTOS/Source/portable/GCC/ARM_CM7/r0p1/portmacro.h **** 
 129:Middlewares/Third_Party/FreeRTOS/Source/portable/GCC/ARM_CM7/r0p1/portmacro.h **** 	/* Generic helper function. */
 130:Middlewares/Third_Party/FreeRTOS/Source/portable/GCC/ARM_CM7/r0p1/portmacro.h **** 	__attribute__( ( always_inline ) ) static inline uint8_t ucPortCountLeadingZeros( uint32_t ulBitma
 131:Middlewares/Third_Party/FreeRTOS/Source/portable/GCC/ARM_CM7/r0p1/portmacro.h **** 	{
 132:Middlewares/Third_Party/FreeRTOS/Source/portable/GCC/ARM_CM7/r0p1/portmacro.h **** 	uint8_t ucReturn;
 133:Middlewares/Third_Party/FreeRTOS/Source/portable/GCC/ARM_CM7/r0p1/portmacro.h **** 
 134:Middlewares/Third_Party/FreeRTOS/Source/portable/GCC/ARM_CM7/r0p1/portmacro.h **** 		__asm volatile ( "clz %0, %1" : "=r" ( ucReturn ) : "r" ( ulBitmap ) : "memory" );
 135:Middlewares/Third_Party/FreeRTOS/Source/portable/GCC/ARM_CM7/r0p1/portmacro.h **** 		return ucReturn;
 136:Middlewares/Third_Party/FreeRTOS/Source/portable/GCC/ARM_CM7/r0p1/portmacro.h **** 	}
 137:Middlewares/Third_Party/FreeRTOS/Source/portable/GCC/ARM_CM7/r0p1/portmacro.h **** 
 138:Middlewares/Third_Party/FreeRTOS/Source/portable/GCC/ARM_CM7/r0p1/portmacro.h **** 	/* Check the configuration. */
 139:Middlewares/Third_Party/FreeRTOS/Source/portable/GCC/ARM_CM7/r0p1/portmacro.h **** 	#if( configMAX_PRIORITIES > 32 )
 140:Middlewares/Third_Party/FreeRTOS/Source/portable/GCC/ARM_CM7/r0p1/portmacro.h **** 		#error configUSE_PORT_OPTIMISED_TASK_SELECTION can only be set to 1 when configMAX_PRIORITIES is 
 141:Middlewares/Third_Party/FreeRTOS/Source/portable/GCC/ARM_CM7/r0p1/portmacro.h **** 	#endif
 142:Middlewares/Third_Party/FreeRTOS/Source/portable/GCC/ARM_CM7/r0p1/portmacro.h **** 
 143:Middlewares/Third_Party/FreeRTOS/Source/portable/GCC/ARM_CM7/r0p1/portmacro.h **** 	/* Store/clear the ready priorities in a bit map. */
 144:Middlewares/Third_Party/FreeRTOS/Source/portable/GCC/ARM_CM7/r0p1/portmacro.h **** 	#define portRECORD_READY_PRIORITY( uxPriority, uxReadyPriorities ) ( uxReadyPriorities ) |= ( 1UL 
 145:Middlewares/Third_Party/FreeRTOS/Source/portable/GCC/ARM_CM7/r0p1/portmacro.h **** 	#define portRESET_READY_PRIORITY( uxPriority, uxReadyPriorities ) ( uxReadyPriorities ) &= ~( 1UL 
 146:Middlewares/Third_Party/FreeRTOS/Source/portable/GCC/ARM_CM7/r0p1/portmacro.h **** 
 147:Middlewares/Third_Party/FreeRTOS/Source/portable/GCC/ARM_CM7/r0p1/portmacro.h **** 	/*-----------------------------------------------------------*/
 148:Middlewares/Third_Party/FreeRTOS/Source/portable/GCC/ARM_CM7/r0p1/portmacro.h **** 
 149:Middlewares/Third_Party/FreeRTOS/Source/portable/GCC/ARM_CM7/r0p1/portmacro.h **** 	#define portGET_HIGHEST_PRIORITY( uxTopPriority, uxReadyPriorities ) uxTopPriority = ( 31UL - ( ui
 150:Middlewares/Third_Party/FreeRTOS/Source/portable/GCC/ARM_CM7/r0p1/portmacro.h **** 
 151:Middlewares/Third_Party/FreeRTOS/Source/portable/GCC/ARM_CM7/r0p1/portmacro.h **** #endif /* configUSE_PORT_OPTIMISED_TASK_SELECTION */
 152:Middlewares/Third_Party/FreeRTOS/Source/portable/GCC/ARM_CM7/r0p1/portmacro.h **** 
 153:Middlewares/Third_Party/FreeRTOS/Source/portable/GCC/ARM_CM7/r0p1/portmacro.h **** /*-----------------------------------------------------------*/
 154:Middlewares/Third_Party/FreeRTOS/Source/portable/GCC/ARM_CM7/r0p1/portmacro.h **** 
 155:Middlewares/Third_Party/FreeRTOS/Source/portable/GCC/ARM_CM7/r0p1/portmacro.h **** #ifdef configASSERT
 156:Middlewares/Third_Party/FreeRTOS/Source/portable/GCC/ARM_CM7/r0p1/portmacro.h **** 	void vPortValidateInterruptPriority( void );
 157:Middlewares/Third_Party/FreeRTOS/Source/portable/GCC/ARM_CM7/r0p1/portmacro.h **** 	#define portASSERT_IF_INTERRUPT_PRIORITY_INVALID() 	vPortValidateInterruptPriority()
 158:Middlewares/Third_Party/FreeRTOS/Source/portable/GCC/ARM_CM7/r0p1/portmacro.h **** #endif
 159:Middlewares/Third_Party/FreeRTOS/Source/portable/GCC/ARM_CM7/r0p1/portmacro.h **** 
 160:Middlewares/Third_Party/FreeRTOS/Source/portable/GCC/ARM_CM7/r0p1/portmacro.h **** /* portNOP() is not required by this port. */
 161:Middlewares/Third_Party/FreeRTOS/Source/portable/GCC/ARM_CM7/r0p1/portmacro.h **** #define portNOP()
 162:Middlewares/Third_Party/FreeRTOS/Source/portable/GCC/ARM_CM7/r0p1/portmacro.h **** 
 163:Middlewares/Third_Party/FreeRTOS/Source/portable/GCC/ARM_CM7/r0p1/portmacro.h **** #define portINLINE	__inline
 164:Middlewares/Third_Party/FreeRTOS/Source/portable/GCC/ARM_CM7/r0p1/portmacro.h **** 
 165:Middlewares/Third_Party/FreeRTOS/Source/portable/GCC/ARM_CM7/r0p1/portmacro.h **** #ifndef portFORCE_INLINE
 166:Middlewares/Third_Party/FreeRTOS/Source/portable/GCC/ARM_CM7/r0p1/portmacro.h **** 	#define portFORCE_INLINE inline __attribute__(( always_inline))
 167:Middlewares/Third_Party/FreeRTOS/Source/portable/GCC/ARM_CM7/r0p1/portmacro.h **** #endif
 168:Middlewares/Third_Party/FreeRTOS/Source/portable/GCC/ARM_CM7/r0p1/portmacro.h **** 
 169:Middlewares/Third_Party/FreeRTOS/Source/portable/GCC/ARM_CM7/r0p1/portmacro.h **** portFORCE_INLINE static BaseType_t xPortIsInsideInterrupt( void )
 170:Middlewares/Third_Party/FreeRTOS/Source/portable/GCC/ARM_CM7/r0p1/portmacro.h **** {
 171:Middlewares/Third_Party/FreeRTOS/Source/portable/GCC/ARM_CM7/r0p1/portmacro.h **** uint32_t ulCurrentInterrupt;
 172:Middlewares/Third_Party/FreeRTOS/Source/portable/GCC/ARM_CM7/r0p1/portmacro.h **** BaseType_t xReturn;
ARM GAS  C:\msys64\tmp\ccn4BJFy.s 			page 27


 173:Middlewares/Third_Party/FreeRTOS/Source/portable/GCC/ARM_CM7/r0p1/portmacro.h **** 
 174:Middlewares/Third_Party/FreeRTOS/Source/portable/GCC/ARM_CM7/r0p1/portmacro.h **** 	/* Obtain the number of the currently executing interrupt. */
 175:Middlewares/Third_Party/FreeRTOS/Source/portable/GCC/ARM_CM7/r0p1/portmacro.h **** 	__asm volatile( "mrs %0, ipsr" : "=r"( ulCurrentInterrupt ) :: "memory" );
 176:Middlewares/Third_Party/FreeRTOS/Source/portable/GCC/ARM_CM7/r0p1/portmacro.h **** 
 177:Middlewares/Third_Party/FreeRTOS/Source/portable/GCC/ARM_CM7/r0p1/portmacro.h **** 	if( ulCurrentInterrupt == 0 )
 178:Middlewares/Third_Party/FreeRTOS/Source/portable/GCC/ARM_CM7/r0p1/portmacro.h **** 	{
 179:Middlewares/Third_Party/FreeRTOS/Source/portable/GCC/ARM_CM7/r0p1/portmacro.h **** 		xReturn = pdFALSE;
 180:Middlewares/Third_Party/FreeRTOS/Source/portable/GCC/ARM_CM7/r0p1/portmacro.h **** 	}
 181:Middlewares/Third_Party/FreeRTOS/Source/portable/GCC/ARM_CM7/r0p1/portmacro.h **** 	else
 182:Middlewares/Third_Party/FreeRTOS/Source/portable/GCC/ARM_CM7/r0p1/portmacro.h **** 	{
 183:Middlewares/Third_Party/FreeRTOS/Source/portable/GCC/ARM_CM7/r0p1/portmacro.h **** 		xReturn = pdTRUE;
 184:Middlewares/Third_Party/FreeRTOS/Source/portable/GCC/ARM_CM7/r0p1/portmacro.h **** 	}
 185:Middlewares/Third_Party/FreeRTOS/Source/portable/GCC/ARM_CM7/r0p1/portmacro.h **** 
 186:Middlewares/Third_Party/FreeRTOS/Source/portable/GCC/ARM_CM7/r0p1/portmacro.h **** 	return xReturn;
 187:Middlewares/Third_Party/FreeRTOS/Source/portable/GCC/ARM_CM7/r0p1/portmacro.h **** }
 188:Middlewares/Third_Party/FreeRTOS/Source/portable/GCC/ARM_CM7/r0p1/portmacro.h **** 
 189:Middlewares/Third_Party/FreeRTOS/Source/portable/GCC/ARM_CM7/r0p1/portmacro.h **** /*-----------------------------------------------------------*/
 190:Middlewares/Third_Party/FreeRTOS/Source/portable/GCC/ARM_CM7/r0p1/portmacro.h **** 
 191:Middlewares/Third_Party/FreeRTOS/Source/portable/GCC/ARM_CM7/r0p1/portmacro.h **** portFORCE_INLINE static void vPortRaiseBASEPRI( void )
 318              		.loc 2 191 30 view .LVU70
 319              	.LBB45:
 192:Middlewares/Third_Party/FreeRTOS/Source/portable/GCC/ARM_CM7/r0p1/portmacro.h **** {
 193:Middlewares/Third_Party/FreeRTOS/Source/portable/GCC/ARM_CM7/r0p1/portmacro.h **** uint32_t ulNewBASEPRI;
 320              		.loc 2 193 1 view .LVU71
 194:Middlewares/Third_Party/FreeRTOS/Source/portable/GCC/ARM_CM7/r0p1/portmacro.h **** 
 195:Middlewares/Third_Party/FreeRTOS/Source/portable/GCC/ARM_CM7/r0p1/portmacro.h **** 	__asm volatile
 321              		.loc 2 195 2 view .LVU72
 322              		.syntax unified
 323              	@ 195 "Middlewares/Third_Party/FreeRTOS/Source/portable/GCC/ARM_CM7/r0p1/portmacro.h" 1
 324 0008 4FF05003 			mov r3, #80												
 325 000c 72B6     		cpsid i													
 326 000e 83F31188 		msr basepri, r3											
 327 0012 BFF36F8F 		isb														
 328 0016 BFF34F8F 		dsb														
 329 001a 62B6     		cpsie i													
 330              	
 331              	@ 0 "" 2
 332              	.LVL28:
 333              		.thumb
 334              		.syntax unified
 335              	.L26:
 336              		.loc 2 195 2 is_stmt 0 view .LVU73
 337              	.LBE45:
 338              	.LBE44:
 357:Middlewares/Third_Party/FreeRTOS/Source/timers.c **** 
 339              		.loc 1 357 2 is_stmt 1 discriminator 1 view .LVU74
 357:Middlewares/Third_Party/FreeRTOS/Source/timers.c **** 
 340              		.loc 1 357 2 discriminator 1 view .LVU75
 357:Middlewares/Third_Party/FreeRTOS/Source/timers.c **** 
 341              		.loc 1 357 2 discriminator 1 view .LVU76
 342 001c FEE7     		b	.L26
 343              	.LVL29:
 344              	.L25:
 357:Middlewares/Third_Party/FreeRTOS/Source/timers.c **** 
 345              		.loc 1 357 2 is_stmt 0 discriminator 1 view .LVU77
 346 001e 0646     		mov	r6, r0
 347 0020 1446     		mov	r4, r2
ARM GAS  C:\msys64\tmp\ccn4BJFy.s 			page 28


 348 0022 1D46     		mov	r5, r3
 349 0024 8846     		mov	r8, r1
 357:Middlewares/Third_Party/FreeRTOS/Source/timers.c **** 
 350              		.loc 1 357 45 is_stmt 1 discriminator 2 view .LVU78
 359:Middlewares/Third_Party/FreeRTOS/Source/timers.c **** 	{
 351              		.loc 1 359 2 discriminator 2 view .LVU79
 359:Middlewares/Third_Party/FreeRTOS/Source/timers.c **** 	{
 352              		.loc 1 359 4 is_stmt 0 discriminator 2 view .LVU80
 353 0026 8FB1     		cbz	r7, .L24
 363:Middlewares/Third_Party/FreeRTOS/Source/timers.c **** 
 354              		.loc 1 363 3 is_stmt 1 view .LVU81
 355 0028 FFF7FEFF 		bl	prvCheckForValidListAndQueue
 356              	.LVL30:
 367:Middlewares/Third_Party/FreeRTOS/Source/timers.c **** 		pxNewTimer->xTimerPeriodInTicks = xTimerPeriodInTicks;
 357              		.loc 1 367 3 view .LVU82
 367:Middlewares/Third_Party/FreeRTOS/Source/timers.c **** 		pxNewTimer->xTimerPeriodInTicks = xTimerPeriodInTicks;
 358              		.loc 1 367 27 is_stmt 0 view .LVU83
 359 002c 3E60     		str	r6, [r7]
 368:Middlewares/Third_Party/FreeRTOS/Source/timers.c **** 		pxNewTimer->pvTimerID = pvTimerID;
 360              		.loc 1 368 3 is_stmt 1 view .LVU84
 368:Middlewares/Third_Party/FreeRTOS/Source/timers.c **** 		pxNewTimer->pvTimerID = pvTimerID;
 361              		.loc 1 368 35 is_stmt 0 view .LVU85
 362 002e C7F81880 		str	r8, [r7, #24]
 369:Middlewares/Third_Party/FreeRTOS/Source/timers.c **** 		pxNewTimer->pxCallbackFunction = pxCallbackFunction;
 363              		.loc 1 369 3 is_stmt 1 view .LVU86
 369:Middlewares/Third_Party/FreeRTOS/Source/timers.c **** 		pxNewTimer->pxCallbackFunction = pxCallbackFunction;
 364              		.loc 1 369 25 is_stmt 0 view .LVU87
 365 0032 FD61     		str	r5, [r7, #28]
 370:Middlewares/Third_Party/FreeRTOS/Source/timers.c **** 		vListInitialiseItem( &( pxNewTimer->xTimerListItem ) );
 366              		.loc 1 370 3 is_stmt 1 view .LVU88
 370:Middlewares/Third_Party/FreeRTOS/Source/timers.c **** 		vListInitialiseItem( &( pxNewTimer->xTimerListItem ) );
 367              		.loc 1 370 34 is_stmt 0 view .LVU89
 368 0034 069B     		ldr	r3, [sp, #24]
 369 0036 3B62     		str	r3, [r7, #32]
 371:Middlewares/Third_Party/FreeRTOS/Source/timers.c **** 		if( uxAutoReload != pdFALSE )
 370              		.loc 1 371 3 is_stmt 1 view .LVU90
 371 0038 381D     		adds	r0, r7, #4
 372 003a FFF7FEFF 		bl	vListInitialiseItem
 373              	.LVL31:
 372:Middlewares/Third_Party/FreeRTOS/Source/timers.c **** 		{
 374              		.loc 1 372 3 view .LVU91
 372:Middlewares/Third_Party/FreeRTOS/Source/timers.c **** 		{
 375              		.loc 1 372 5 is_stmt 0 view .LVU92
 376 003e 2CB1     		cbz	r4, .L24
 374:Middlewares/Third_Party/FreeRTOS/Source/timers.c **** 		}
 377              		.loc 1 374 4 is_stmt 1 view .LVU93
 374:Middlewares/Third_Party/FreeRTOS/Source/timers.c **** 		}
 378              		.loc 1 374 25 is_stmt 0 view .LVU94
 379 0040 97F82830 		ldrb	r3, [r7, #40]	@ zero_extendqisi2
 380 0044 43F00403 		orr	r3, r3, #4
 381 0048 87F82830 		strb	r3, [r7, #40]
 376:Middlewares/Third_Party/FreeRTOS/Source/timers.c **** 	}
 382              		.loc 1 376 34 is_stmt 1 view .LVU95
 383              	.L24:
 378:Middlewares/Third_Party/FreeRTOS/Source/timers.c **** /*-----------------------------------------------------------*/
 384              		.loc 1 378 1 is_stmt 0 view .LVU96
 385 004c BDE8F081 		pop	{r4, r5, r6, r7, r8, pc}
ARM GAS  C:\msys64\tmp\ccn4BJFy.s 			page 29


 378:Middlewares/Third_Party/FreeRTOS/Source/timers.c **** /*-----------------------------------------------------------*/
 386              		.loc 1 378 1 view .LVU97
 387              		.cfi_endproc
 388              	.LFE7:
 390              		.section	.rodata.xTimerCreateTimerTask.str1.4,"aMS",%progbits,1
 391              		.align	2
 392              	.LC1:
 393 0000 546D7220 		.ascii	"Tmr Svc\000"
 393      53766300 
 394              		.section	.text.xTimerCreateTimerTask,"ax",%progbits
 395              		.align	1
 396              		.global	xTimerCreateTimerTask
 397              		.syntax unified
 398              		.thumb
 399              		.thumb_func
 401              	xTimerCreateTimerTask:
 402              	.LFB4:
 228:Middlewares/Third_Party/FreeRTOS/Source/timers.c **** BaseType_t xReturn = pdFAIL;
 403              		.loc 1 228 1 is_stmt 1 view -0
 404              		.cfi_startproc
 405              		@ args = 0, pretend = 0, frame = 16
 406              		@ frame_needed = 0, uses_anonymous_args = 0
 407 0000 10B5     		push	{r4, lr}
 408              	.LCFI6:
 409              		.cfi_def_cfa_offset 8
 410              		.cfi_offset 4, -8
 411              		.cfi_offset 14, -4
 412 0002 88B0     		sub	sp, sp, #32
 413              	.LCFI7:
 414              		.cfi_def_cfa_offset 40
 229:Middlewares/Third_Party/FreeRTOS/Source/timers.c **** 
 415              		.loc 1 229 1 view .LVU99
 416              	.LVL32:
 235:Middlewares/Third_Party/FreeRTOS/Source/timers.c **** 
 417              		.loc 1 235 2 view .LVU100
 418 0004 FFF7FEFF 		bl	prvCheckForValidListAndQueue
 419              	.LVL33:
 237:Middlewares/Third_Party/FreeRTOS/Source/timers.c **** 	{
 420              		.loc 1 237 2 view .LVU101
 237:Middlewares/Third_Party/FreeRTOS/Source/timers.c **** 	{
 421              		.loc 1 237 18 is_stmt 0 view .LVU102
 422 0008 134B     		ldr	r3, .L35
 423 000a 1B68     		ldr	r3, [r3]
 237:Middlewares/Third_Party/FreeRTOS/Source/timers.c **** 	{
 424              		.loc 1 237 4 view .LVU103
 425 000c CBB1     		cbz	r3, .L30
 426              	.LBB46:
 241:Middlewares/Third_Party/FreeRTOS/Source/timers.c **** 			StackType_t *pxTimerTaskStackBuffer = NULL;
 427              		.loc 1 241 4 is_stmt 1 view .LVU104
 241:Middlewares/Third_Party/FreeRTOS/Source/timers.c **** 			StackType_t *pxTimerTaskStackBuffer = NULL;
 428              		.loc 1 241 18 is_stmt 0 view .LVU105
 429 000e 0024     		movs	r4, #0
 430 0010 0594     		str	r4, [sp, #20]
 242:Middlewares/Third_Party/FreeRTOS/Source/timers.c **** 			uint32_t ulTimerTaskStackSize;
 431              		.loc 1 242 4 is_stmt 1 view .LVU106
 242:Middlewares/Third_Party/FreeRTOS/Source/timers.c **** 			uint32_t ulTimerTaskStackSize;
 432              		.loc 1 242 17 is_stmt 0 view .LVU107
ARM GAS  C:\msys64\tmp\ccn4BJFy.s 			page 30


 433 0012 0694     		str	r4, [sp, #24]
 243:Middlewares/Third_Party/FreeRTOS/Source/timers.c **** 
 434              		.loc 1 243 4 is_stmt 1 view .LVU108
 245:Middlewares/Third_Party/FreeRTOS/Source/timers.c **** 			xTimerTaskHandle = xTaskCreateStatic(	prvTimerTask,
 435              		.loc 1 245 4 view .LVU109
 436 0014 07AA     		add	r2, sp, #28
 437 0016 06A9     		add	r1, sp, #24
 438 0018 05A8     		add	r0, sp, #20
 439 001a FFF7FEFF 		bl	vApplicationGetTimerTaskMemory
 440              	.LVL34:
 246:Middlewares/Third_Party/FreeRTOS/Source/timers.c **** 													configTIMER_SERVICE_TASK_NAME,
 441              		.loc 1 246 4 view .LVU110
 246:Middlewares/Third_Party/FreeRTOS/Source/timers.c **** 													configTIMER_SERVICE_TASK_NAME,
 442              		.loc 1 246 23 is_stmt 0 view .LVU111
 443 001e 059B     		ldr	r3, [sp, #20]
 444 0020 0293     		str	r3, [sp, #8]
 445 0022 069B     		ldr	r3, [sp, #24]
 446 0024 0193     		str	r3, [sp, #4]
 447 0026 0223     		movs	r3, #2
 448 0028 0093     		str	r3, [sp]
 449 002a 2346     		mov	r3, r4
 450 002c 079A     		ldr	r2, [sp, #28]
 451 002e 0B49     		ldr	r1, .L35+4
 452 0030 0B48     		ldr	r0, .L35+8
 453 0032 FFF7FEFF 		bl	xTaskCreateStatic
 454              	.LVL35:
 246:Middlewares/Third_Party/FreeRTOS/Source/timers.c **** 													configTIMER_SERVICE_TASK_NAME,
 455              		.loc 1 246 21 view .LVU112
 456 0036 0B4B     		ldr	r3, .L35+12
 457 0038 1860     		str	r0, [r3]
 254:Middlewares/Third_Party/FreeRTOS/Source/timers.c **** 			{
 458              		.loc 1 254 4 is_stmt 1 view .LVU113
 254:Middlewares/Third_Party/FreeRTOS/Source/timers.c **** 			{
 459              		.loc 1 254 6 is_stmt 0 view .LVU114
 460 003a 10B1     		cbz	r0, .L30
 461              	.LBE46:
 277:Middlewares/Third_Party/FreeRTOS/Source/timers.c **** /*-----------------------------------------------------------*/
 462              		.loc 1 277 1 view .LVU115
 463 003c 0120     		movs	r0, #1
 464 003e 08B0     		add	sp, sp, #32
 465              	.LCFI8:
 466              		.cfi_remember_state
 467              		.cfi_def_cfa_offset 8
 468              		@ sp needed
 469 0040 10BD     		pop	{r4, pc}
 470              	.L30:
 471              	.LCFI9:
 472              		.cfi_restore_state
 473              	.LVL36:
 275:Middlewares/Third_Party/FreeRTOS/Source/timers.c **** 	return xReturn;
 474              		.loc 1 275 2 is_stmt 1 view .LVU116
 475              	.LBB47:
 476              	.LBI47:
 191:Middlewares/Third_Party/FreeRTOS/Source/portable/GCC/ARM_CM7/r0p1/portmacro.h **** {
 477              		.loc 2 191 30 view .LVU117
 478              	.LBB48:
 193:Middlewares/Third_Party/FreeRTOS/Source/portable/GCC/ARM_CM7/r0p1/portmacro.h **** 
ARM GAS  C:\msys64\tmp\ccn4BJFy.s 			page 31


 479              		.loc 2 193 1 view .LVU118
 480              		.loc 2 195 2 view .LVU119
 481              		.syntax unified
 482              	@ 195 "Middlewares/Third_Party/FreeRTOS/Source/portable/GCC/ARM_CM7/r0p1/portmacro.h" 1
 483 0042 4FF05003 			mov r3, #80												
 484 0046 72B6     		cpsid i													
 485 0048 83F31188 		msr basepri, r3											
 486 004c BFF36F8F 		isb														
 487 0050 BFF34F8F 		dsb														
 488 0054 62B6     		cpsie i													
 489              	
 490              	@ 0 "" 2
 491              	.LVL37:
 492              		.thumb
 493              		.syntax unified
 494              	.L32:
 495              		.loc 2 195 2 is_stmt 0 view .LVU120
 496              	.LBE48:
 497              	.LBE47:
 275:Middlewares/Third_Party/FreeRTOS/Source/timers.c **** 	return xReturn;
 498              		.loc 1 275 2 is_stmt 1 discriminator 1 view .LVU121
 275:Middlewares/Third_Party/FreeRTOS/Source/timers.c **** 	return xReturn;
 499              		.loc 1 275 2 discriminator 1 view .LVU122
 275:Middlewares/Third_Party/FreeRTOS/Source/timers.c **** 	return xReturn;
 500              		.loc 1 275 2 discriminator 1 view .LVU123
 501 0056 FEE7     		b	.L32
 502              	.L36:
 503              		.align	2
 504              	.L35:
 505 0058 00000000 		.word	.LANCHOR2
 506 005c 00000000 		.word	.LC1
 507 0060 00000000 		.word	prvTimerTask
 508 0064 00000000 		.word	.LANCHOR7
 509              		.cfi_endproc
 510              	.LFE4:
 512              		.section	.text.xTimerCreate,"ax",%progbits
 513              		.align	1
 514              		.global	xTimerCreate
 515              		.syntax unified
 516              		.thumb
 517              		.thumb_func
 519              	xTimerCreate:
 520              	.LVL38:
 521              	.LFB5:
 287:Middlewares/Third_Party/FreeRTOS/Source/timers.c **** 	Timer_t *pxNewTimer;
 522              		.loc 1 287 2 view -0
 523              		.cfi_startproc
 524              		@ args = 4, pretend = 0, frame = 0
 525              		@ frame_needed = 0, uses_anonymous_args = 0
 287:Middlewares/Third_Party/FreeRTOS/Source/timers.c **** 	Timer_t *pxNewTimer;
 526              		.loc 1 287 2 is_stmt 0 view .LVU125
 527 0000 2DE9F041 		push	{r4, r5, r6, r7, r8, lr}
 528              	.LCFI10:
 529              		.cfi_def_cfa_offset 24
 530              		.cfi_offset 4, -24
 531              		.cfi_offset 5, -20
 532              		.cfi_offset 6, -16
ARM GAS  C:\msys64\tmp\ccn4BJFy.s 			page 32


 533              		.cfi_offset 7, -12
 534              		.cfi_offset 8, -8
 535              		.cfi_offset 14, -4
 536 0004 82B0     		sub	sp, sp, #8
 537              	.LCFI11:
 538              		.cfi_def_cfa_offset 32
 539 0006 0446     		mov	r4, r0
 540 0008 8846     		mov	r8, r1
 541 000a 1746     		mov	r7, r2
 542 000c 1D46     		mov	r5, r3
 288:Middlewares/Third_Party/FreeRTOS/Source/timers.c **** 
 543              		.loc 1 288 2 is_stmt 1 view .LVU126
 290:Middlewares/Third_Party/FreeRTOS/Source/timers.c **** 
 544              		.loc 1 290 3 view .LVU127
 290:Middlewares/Third_Party/FreeRTOS/Source/timers.c **** 
 545              		.loc 1 290 30 is_stmt 0 view .LVU128
 546 000e 2C20     		movs	r0, #44
 547              	.LVL39:
 290:Middlewares/Third_Party/FreeRTOS/Source/timers.c **** 
 548              		.loc 1 290 30 view .LVU129
 549 0010 FFF7FEFF 		bl	pvPortMalloc
 550              	.LVL40:
 292:Middlewares/Third_Party/FreeRTOS/Source/timers.c **** 		{
 551              		.loc 1 292 3 is_stmt 1 view .LVU130
 292:Middlewares/Third_Party/FreeRTOS/Source/timers.c **** 		{
 552              		.loc 1 292 5 is_stmt 0 view .LVU131
 553 0014 0646     		mov	r6, r0
 554 0016 58B1     		cbz	r0, .L37
 297:Middlewares/Third_Party/FreeRTOS/Source/timers.c **** 			prvInitialiseNewTimer( pcTimerName, xTimerPeriodInTicks, uxAutoReload, pvTimerID, pxCallbackFunc
 555              		.loc 1 297 4 is_stmt 1 view .LVU132
 297:Middlewares/Third_Party/FreeRTOS/Source/timers.c **** 			prvInitialiseNewTimer( pcTimerName, xTimerPeriodInTicks, uxAutoReload, pvTimerID, pxCallbackFunc
 556              		.loc 1 297 25 is_stmt 0 view .LVU133
 557 0018 0023     		movs	r3, #0
 558 001a 80F82830 		strb	r3, [r0, #40]
 298:Middlewares/Third_Party/FreeRTOS/Source/timers.c **** 		}
 559              		.loc 1 298 4 is_stmt 1 view .LVU134
 560 001e 0190     		str	r0, [sp, #4]
 561 0020 089B     		ldr	r3, [sp, #32]
 562 0022 0093     		str	r3, [sp]
 563 0024 2B46     		mov	r3, r5
 564 0026 3A46     		mov	r2, r7
 565 0028 4146     		mov	r1, r8
 566 002a 2046     		mov	r0, r4
 567              	.LVL41:
 298:Middlewares/Third_Party/FreeRTOS/Source/timers.c **** 		}
 568              		.loc 1 298 4 is_stmt 0 view .LVU135
 569 002c FFF7FEFF 		bl	prvInitialiseNewTimer
 570              	.LVL42:
 301:Middlewares/Third_Party/FreeRTOS/Source/timers.c **** 	}
 571              		.loc 1 301 3 is_stmt 1 view .LVU136
 572              	.L37:
 302:Middlewares/Third_Party/FreeRTOS/Source/timers.c **** 
 573              		.loc 1 302 2 is_stmt 0 view .LVU137
 574 0030 3046     		mov	r0, r6
 575 0032 02B0     		add	sp, sp, #8
 576              	.LCFI12:
 577              		.cfi_def_cfa_offset 24
ARM GAS  C:\msys64\tmp\ccn4BJFy.s 			page 33


 578              		@ sp needed
 579 0034 BDE8F081 		pop	{r4, r5, r6, r7, r8, pc}
 302:Middlewares/Third_Party/FreeRTOS/Source/timers.c **** 
 580              		.loc 1 302 2 view .LVU138
 581              		.cfi_endproc
 582              	.LFE5:
 584              		.section	.text.xTimerCreateStatic,"ax",%progbits
 585              		.align	1
 586              		.global	xTimerCreateStatic
 587              		.syntax unified
 588              		.thumb
 589              		.thumb_func
 591              	xTimerCreateStatic:
 592              	.LVL43:
 593              	.LFB6:
 315:Middlewares/Third_Party/FreeRTOS/Source/timers.c **** 	Timer_t *pxNewTimer;
 594              		.loc 1 315 2 is_stmt 1 view -0
 595              		.cfi_startproc
 596              		@ args = 8, pretend = 0, frame = 8
 597              		@ frame_needed = 0, uses_anonymous_args = 0
 315:Middlewares/Third_Party/FreeRTOS/Source/timers.c **** 	Timer_t *pxNewTimer;
 598              		.loc 1 315 2 is_stmt 0 view .LVU140
 599 0000 10B5     		push	{r4, lr}
 600              	.LCFI13:
 601              		.cfi_def_cfa_offset 8
 602              		.cfi_offset 4, -8
 603              		.cfi_offset 14, -4
 604 0002 84B0     		sub	sp, sp, #16
 605              	.LCFI14:
 606              		.cfi_def_cfa_offset 24
 607 0004 8446     		mov	ip, r0
 316:Middlewares/Third_Party/FreeRTOS/Source/timers.c **** 
 608              		.loc 1 316 2 is_stmt 1 view .LVU141
 609              	.LBB49:
 323:Middlewares/Third_Party/FreeRTOS/Source/timers.c **** 			configASSERT( xSize == sizeof( Timer_t ) );
 610              		.loc 1 323 4 view .LVU142
 323:Middlewares/Third_Party/FreeRTOS/Source/timers.c **** 			configASSERT( xSize == sizeof( Timer_t ) );
 611              		.loc 1 323 20 is_stmt 0 view .LVU143
 612 0006 2C20     		movs	r0, #44
 613              	.LVL44:
 323:Middlewares/Third_Party/FreeRTOS/Source/timers.c **** 			configASSERT( xSize == sizeof( Timer_t ) );
 614              		.loc 1 323 20 view .LVU144
 615 0008 0390     		str	r0, [sp, #12]
 324:Middlewares/Third_Party/FreeRTOS/Source/timers.c **** 			( void ) xSize; /* Keeps lint quiet when configASSERT() is not defined. */
 616              		.loc 1 324 4 is_stmt 1 view .LVU145
 617 000a 0398     		ldr	r0, [sp, #12]
 618 000c 2C28     		cmp	r0, #44
 619 000e 0AD0     		beq	.L41
 324:Middlewares/Third_Party/FreeRTOS/Source/timers.c **** 			( void ) xSize; /* Keeps lint quiet when configASSERT() is not defined. */
 620              		.loc 1 324 4 view .LVU146
 621              	.LBB50:
 622              	.LBI50:
 191:Middlewares/Third_Party/FreeRTOS/Source/portable/GCC/ARM_CM7/r0p1/portmacro.h **** {
 623              		.loc 2 191 30 view .LVU147
 624              	.LBB51:
 193:Middlewares/Third_Party/FreeRTOS/Source/portable/GCC/ARM_CM7/r0p1/portmacro.h **** 
 625              		.loc 2 193 1 view .LVU148
ARM GAS  C:\msys64\tmp\ccn4BJFy.s 			page 34


 626              		.loc 2 195 2 view .LVU149
 627              		.syntax unified
 628              	@ 195 "Middlewares/Third_Party/FreeRTOS/Source/portable/GCC/ARM_CM7/r0p1/portmacro.h" 1
 629 0010 4FF05003 			mov r3, #80												
 630 0014 72B6     		cpsid i													
 631 0016 83F31188 		msr basepri, r3											
 632 001a BFF36F8F 		isb														
 633 001e BFF34F8F 		dsb														
 634 0022 62B6     		cpsie i													
 635              	
 636              	@ 0 "" 2
 637              	.LVL45:
 638              		.thumb
 639              		.syntax unified
 640              	.L42:
 641              		.loc 2 195 2 is_stmt 0 view .LVU150
 642              	.LBE51:
 643              	.LBE50:
 324:Middlewares/Third_Party/FreeRTOS/Source/timers.c **** 			( void ) xSize; /* Keeps lint quiet when configASSERT() is not defined. */
 644              		.loc 1 324 4 is_stmt 1 discriminator 1 view .LVU151
 324:Middlewares/Third_Party/FreeRTOS/Source/timers.c **** 			( void ) xSize; /* Keeps lint quiet when configASSERT() is not defined. */
 645              		.loc 1 324 4 discriminator 1 view .LVU152
 324:Middlewares/Third_Party/FreeRTOS/Source/timers.c **** 			( void ) xSize; /* Keeps lint quiet when configASSERT() is not defined. */
 646              		.loc 1 324 4 discriminator 1 view .LVU153
 647 0024 FEE7     		b	.L42
 648              	.LVL46:
 649              	.L41:
 324:Middlewares/Third_Party/FreeRTOS/Source/timers.c **** 			( void ) xSize; /* Keeps lint quiet when configASSERT() is not defined. */
 650              		.loc 1 324 46 discriminator 2 view .LVU154
 325:Middlewares/Third_Party/FreeRTOS/Source/timers.c **** 		}
 651              		.loc 1 325 4 discriminator 2 view .LVU155
 652 0026 0398     		ldr	r0, [sp, #12]
 653              	.LBE49:
 330:Middlewares/Third_Party/FreeRTOS/Source/timers.c **** 		pxNewTimer = ( Timer_t * ) pxTimerBuffer; /*lint !e740 !e9087 StaticTimer_t is a pointer to a Tim
 654              		.loc 1 330 3 discriminator 2 view .LVU156
 655 0028 0798     		ldr	r0, [sp, #28]
 656 002a 60B1     		cbz	r0, .L46
 330:Middlewares/Third_Party/FreeRTOS/Source/timers.c **** 		pxNewTimer = ( Timer_t * ) pxTimerBuffer; /*lint !e740 !e9087 StaticTimer_t is a pointer to a Tim
 657              		.loc 1 330 32 view .LVU157
 331:Middlewares/Third_Party/FreeRTOS/Source/timers.c **** 
 658              		.loc 1 331 3 view .LVU158
 659              	.LVL47:
 333:Middlewares/Third_Party/FreeRTOS/Source/timers.c **** 		{
 660              		.loc 1 333 3 view .LVU159
 338:Middlewares/Third_Party/FreeRTOS/Source/timers.c **** 
 661              		.loc 1 338 4 view .LVU160
 338:Middlewares/Third_Party/FreeRTOS/Source/timers.c **** 
 662              		.loc 1 338 25 is_stmt 0 view .LVU161
 663 002c 0220     		movs	r0, #2
 664              	.LVL48:
 338:Middlewares/Third_Party/FreeRTOS/Source/timers.c **** 
 665              		.loc 1 338 25 view .LVU162
 666 002e 079C     		ldr	r4, [sp, #28]
 667 0030 84F82800 		strb	r0, [r4, #40]
 340:Middlewares/Third_Party/FreeRTOS/Source/timers.c **** 		}
 668              		.loc 1 340 4 is_stmt 1 view .LVU163
 669 0034 0194     		str	r4, [sp, #4]
ARM GAS  C:\msys64\tmp\ccn4BJFy.s 			page 35


 670 0036 0698     		ldr	r0, [sp, #24]
 671 0038 0090     		str	r0, [sp]
 672 003a 6046     		mov	r0, ip
 673 003c FFF7FEFF 		bl	prvInitialiseNewTimer
 674              	.LVL49:
 343:Middlewares/Third_Party/FreeRTOS/Source/timers.c **** 	}
 675              		.loc 1 343 3 view .LVU164
 344:Middlewares/Third_Party/FreeRTOS/Source/timers.c **** 
 676              		.loc 1 344 2 is_stmt 0 view .LVU165
 677 0040 0798     		ldr	r0, [sp, #28]
 678 0042 04B0     		add	sp, sp, #16
 679              	.LCFI15:
 680              		.cfi_remember_state
 681              		.cfi_def_cfa_offset 8
 682              		@ sp needed
 683 0044 10BD     		pop	{r4, pc}
 684              	.LVL50:
 685              	.L46:
 686              	.LCFI16:
 687              		.cfi_restore_state
 330:Middlewares/Third_Party/FreeRTOS/Source/timers.c **** 		pxNewTimer = ( Timer_t * ) pxTimerBuffer; /*lint !e740 !e9087 StaticTimer_t is a pointer to a Tim
 688              		.loc 1 330 3 is_stmt 1 view .LVU166
 689              	.LBB52:
 690              	.LBI52:
 191:Middlewares/Third_Party/FreeRTOS/Source/portable/GCC/ARM_CM7/r0p1/portmacro.h **** {
 691              		.loc 2 191 30 view .LVU167
 692              	.LBB53:
 193:Middlewares/Third_Party/FreeRTOS/Source/portable/GCC/ARM_CM7/r0p1/portmacro.h **** 
 693              		.loc 2 193 1 view .LVU168
 694              		.loc 2 195 2 view .LVU169
 695              		.syntax unified
 696              	@ 195 "Middlewares/Third_Party/FreeRTOS/Source/portable/GCC/ARM_CM7/r0p1/portmacro.h" 1
 697 0046 4FF05003 			mov r3, #80												
 698 004a 72B6     		cpsid i													
 699 004c 83F31188 		msr basepri, r3											
 700 0050 BFF36F8F 		isb														
 701 0054 BFF34F8F 		dsb														
 702 0058 62B6     		cpsie i													
 703              	
 704              	@ 0 "" 2
 705              	.LVL51:
 706              		.thumb
 707              		.syntax unified
 708              	.L44:
 709              		.loc 2 195 2 is_stmt 0 view .LVU170
 710              	.LBE53:
 711              	.LBE52:
 330:Middlewares/Third_Party/FreeRTOS/Source/timers.c **** 		pxNewTimer = ( Timer_t * ) pxTimerBuffer; /*lint !e740 !e9087 StaticTimer_t is a pointer to a Tim
 712              		.loc 1 330 3 is_stmt 1 discriminator 2 view .LVU171
 330:Middlewares/Third_Party/FreeRTOS/Source/timers.c **** 		pxNewTimer = ( Timer_t * ) pxTimerBuffer; /*lint !e740 !e9087 StaticTimer_t is a pointer to a Tim
 713              		.loc 1 330 3 discriminator 2 view .LVU172
 330:Middlewares/Third_Party/FreeRTOS/Source/timers.c **** 		pxNewTimer = ( Timer_t * ) pxTimerBuffer; /*lint !e740 !e9087 StaticTimer_t is a pointer to a Tim
 714              		.loc 1 330 3 discriminator 2 view .LVU173
 715 005a FEE7     		b	.L44
 716              		.cfi_endproc
 717              	.LFE6:
 719              		.section	.text.xTimerGenericCommand,"ax",%progbits
ARM GAS  C:\msys64\tmp\ccn4BJFy.s 			page 36


 720              		.align	1
 721              		.global	xTimerGenericCommand
 722              		.syntax unified
 723              		.thumb
 724              		.thumb_func
 726              	xTimerGenericCommand:
 727              	.LVL52:
 728              	.LFB8:
 382:Middlewares/Third_Party/FreeRTOS/Source/timers.c **** BaseType_t xReturn = pdFAIL;
 729              		.loc 1 382 1 view -0
 730              		.cfi_startproc
 731              		@ args = 4, pretend = 0, frame = 16
 732              		@ frame_needed = 0, uses_anonymous_args = 0
 383:Middlewares/Third_Party/FreeRTOS/Source/timers.c **** DaemonTaskMessage_t xMessage;
 733              		.loc 1 383 1 view .LVU175
 384:Middlewares/Third_Party/FreeRTOS/Source/timers.c **** 
 734              		.loc 1 384 1 view .LVU176
 386:Middlewares/Third_Party/FreeRTOS/Source/timers.c **** 
 735              		.loc 1 386 2 view .LVU177
 736 0000 B8B1     		cbz	r0, .L58
 737 0002 9C46     		mov	ip, r3
 738 0004 0346     		mov	r3, r0
 739              	.LVL53:
 386:Middlewares/Third_Party/FreeRTOS/Source/timers.c **** 
 740              		.loc 1 386 24 discriminator 2 view .LVU178
 390:Middlewares/Third_Party/FreeRTOS/Source/timers.c **** 	{
 741              		.loc 1 390 2 discriminator 2 view .LVU179
 390:Middlewares/Third_Party/FreeRTOS/Source/timers.c **** 	{
 742              		.loc 1 390 18 is_stmt 0 discriminator 2 view .LVU180
 743 0006 1948     		ldr	r0, .L60
 744              	.LVL54:
 390:Middlewares/Third_Party/FreeRTOS/Source/timers.c **** 	{
 745              		.loc 1 390 18 discriminator 2 view .LVU181
 746 0008 0068     		ldr	r0, [r0]
 390:Middlewares/Third_Party/FreeRTOS/Source/timers.c **** 	{
 747              		.loc 1 390 4 discriminator 2 view .LVU182
 748 000a 68B3     		cbz	r0, .L53
 382:Middlewares/Third_Party/FreeRTOS/Source/timers.c **** BaseType_t xReturn = pdFAIL;
 749              		.loc 1 382 1 view .LVU183
 750 000c 00B5     		push	{lr}
 751              	.LCFI17:
 752              		.cfi_def_cfa_offset 4
 753              		.cfi_offset 14, -4
 754 000e 85B0     		sub	sp, sp, #20
 755              	.LCFI18:
 756              		.cfi_def_cfa_offset 24
 393:Middlewares/Third_Party/FreeRTOS/Source/timers.c **** 		xMessage.u.xTimerParameters.xMessageValue = xOptionalValue;
 757              		.loc 1 393 3 is_stmt 1 view .LVU184
 393:Middlewares/Third_Party/FreeRTOS/Source/timers.c **** 		xMessage.u.xTimerParameters.xMessageValue = xOptionalValue;
 758              		.loc 1 393 23 is_stmt 0 view .LVU185
 759 0010 0091     		str	r1, [sp]
 394:Middlewares/Third_Party/FreeRTOS/Source/timers.c **** 		xMessage.u.xTimerParameters.pxTimer = xTimer;
 760              		.loc 1 394 3 is_stmt 1 view .LVU186
 394:Middlewares/Third_Party/FreeRTOS/Source/timers.c **** 		xMessage.u.xTimerParameters.pxTimer = xTimer;
 761              		.loc 1 394 45 is_stmt 0 view .LVU187
 762 0012 0192     		str	r2, [sp, #4]
 395:Middlewares/Third_Party/FreeRTOS/Source/timers.c **** 
ARM GAS  C:\msys64\tmp\ccn4BJFy.s 			page 37


 763              		.loc 1 395 3 is_stmt 1 view .LVU188
 395:Middlewares/Third_Party/FreeRTOS/Source/timers.c **** 
 764              		.loc 1 395 39 is_stmt 0 view .LVU189
 765 0014 0293     		str	r3, [sp, #8]
 397:Middlewares/Third_Party/FreeRTOS/Source/timers.c **** 		{
 766              		.loc 1 397 3 is_stmt 1 view .LVU190
 397:Middlewares/Third_Party/FreeRTOS/Source/timers.c **** 		{
 767              		.loc 1 397 5 is_stmt 0 view .LVU191
 768 0016 0529     		cmp	r1, #5
 769 0018 1EDC     		bgt	.L51
 399:Middlewares/Third_Party/FreeRTOS/Source/timers.c **** 			{
 770              		.loc 1 399 4 is_stmt 1 view .LVU192
 399:Middlewares/Third_Party/FreeRTOS/Source/timers.c **** 			{
 771              		.loc 1 399 8 is_stmt 0 view .LVU193
 772 001a FFF7FEFF 		bl	xTaskGetSchedulerState
 773              	.LVL55:
 399:Middlewares/Third_Party/FreeRTOS/Source/timers.c **** 			{
 774              		.loc 1 399 6 view .LVU194
 775 001e 0228     		cmp	r0, #2
 776 0020 12D0     		beq	.L59
 405:Middlewares/Third_Party/FreeRTOS/Source/timers.c **** 			}
 777              		.loc 1 405 5 is_stmt 1 view .LVU195
 405:Middlewares/Third_Party/FreeRTOS/Source/timers.c **** 			}
 778              		.loc 1 405 15 is_stmt 0 view .LVU196
 779 0022 0023     		movs	r3, #0
 780 0024 1A46     		mov	r2, r3
 781 0026 6946     		mov	r1, sp
 782 0028 1048     		ldr	r0, .L60
 783 002a 0068     		ldr	r0, [r0]
 784 002c FFF7FEFF 		bl	xQueueGenericSend
 785              	.LVL56:
 405:Middlewares/Third_Party/FreeRTOS/Source/timers.c **** 			}
 786              		.loc 1 405 15 view .LVU197
 787 0030 17E0     		b	.L47
 788              	.LVL57:
 789              	.L58:
 790              	.LCFI19:
 791              		.cfi_def_cfa_offset 0
 792              		.cfi_restore 14
 386:Middlewares/Third_Party/FreeRTOS/Source/timers.c **** 
 793              		.loc 1 386 2 is_stmt 1 view .LVU198
 794              	.LBB54:
 795              	.LBI54:
 191:Middlewares/Third_Party/FreeRTOS/Source/portable/GCC/ARM_CM7/r0p1/portmacro.h **** {
 796              		.loc 2 191 30 view .LVU199
 797              	.LBB55:
 193:Middlewares/Third_Party/FreeRTOS/Source/portable/GCC/ARM_CM7/r0p1/portmacro.h **** 
 798              		.loc 2 193 1 view .LVU200
 799              		.loc 2 195 2 view .LVU201
 800              		.syntax unified
 801              	@ 195 "Middlewares/Third_Party/FreeRTOS/Source/portable/GCC/ARM_CM7/r0p1/portmacro.h" 1
 802 0032 4FF05003 			mov r3, #80												
 803 0036 72B6     		cpsid i													
 804 0038 83F31188 		msr basepri, r3											
 805 003c BFF36F8F 		isb														
 806 0040 BFF34F8F 		dsb														
 807 0044 62B6     		cpsie i													
ARM GAS  C:\msys64\tmp\ccn4BJFy.s 			page 38


 808              	
 809              	@ 0 "" 2
 810              	.LVL58:
 811              		.thumb
 812              		.syntax unified
 813              	.L49:
 814              		.loc 2 195 2 is_stmt 0 view .LVU202
 815              	.LBE55:
 816              	.LBE54:
 386:Middlewares/Third_Party/FreeRTOS/Source/timers.c **** 
 817              		.loc 1 386 2 is_stmt 1 discriminator 1 view .LVU203
 386:Middlewares/Third_Party/FreeRTOS/Source/timers.c **** 
 818              		.loc 1 386 2 discriminator 1 view .LVU204
 386:Middlewares/Third_Party/FreeRTOS/Source/timers.c **** 
 819              		.loc 1 386 2 discriminator 1 view .LVU205
 820 0046 FEE7     		b	.L49
 821              	.LVL59:
 822              	.L59:
 823              	.LCFI20:
 824              		.cfi_def_cfa_offset 24
 825              		.cfi_offset 14, -4
 401:Middlewares/Third_Party/FreeRTOS/Source/timers.c **** 			}
 826              		.loc 1 401 5 view .LVU206
 401:Middlewares/Third_Party/FreeRTOS/Source/timers.c **** 			}
 827              		.loc 1 401 15 is_stmt 0 view .LVU207
 828 0048 0023     		movs	r3, #0
 829 004a 069A     		ldr	r2, [sp, #24]
 830 004c 6946     		mov	r1, sp
 831 004e 0748     		ldr	r0, .L60
 832 0050 0068     		ldr	r0, [r0]
 833 0052 FFF7FEFF 		bl	xQueueGenericSend
 834              	.LVL60:
 401:Middlewares/Third_Party/FreeRTOS/Source/timers.c **** 			}
 835              		.loc 1 401 15 view .LVU208
 836 0056 04E0     		b	.L47
 837              	.LVL61:
 838              	.L51:
 410:Middlewares/Third_Party/FreeRTOS/Source/timers.c **** 		}
 839              		.loc 1 410 4 is_stmt 1 view .LVU209
 410:Middlewares/Third_Party/FreeRTOS/Source/timers.c **** 		}
 840              		.loc 1 410 14 is_stmt 0 view .LVU210
 841 0058 0023     		movs	r3, #0
 842              	.LVL62:
 410:Middlewares/Third_Party/FreeRTOS/Source/timers.c **** 		}
 843              		.loc 1 410 14 view .LVU211
 844 005a 6246     		mov	r2, ip
 845              	.LVL63:
 410:Middlewares/Third_Party/FreeRTOS/Source/timers.c **** 		}
 846              		.loc 1 410 14 view .LVU212
 847 005c 6946     		mov	r1, sp
 848              	.LVL64:
 410:Middlewares/Third_Party/FreeRTOS/Source/timers.c **** 		}
 849              		.loc 1 410 14 view .LVU213
 850 005e FFF7FEFF 		bl	xQueueGenericSendFromISR
 851              	.LVL65:
 852              	.L47:
 421:Middlewares/Third_Party/FreeRTOS/Source/timers.c **** /*-----------------------------------------------------------*/
ARM GAS  C:\msys64\tmp\ccn4BJFy.s 			page 39


 853              		.loc 1 421 1 view .LVU214
 854 0062 05B0     		add	sp, sp, #20
 855              	.LCFI21:
 856              		.cfi_def_cfa_offset 4
 857              		@ sp needed
 858 0064 5DF804FB 		ldr	pc, [sp], #4
 859              	.LVL66:
 860              	.L53:
 861              	.LCFI22:
 862              		.cfi_def_cfa_offset 0
 863              		.cfi_restore 14
 383:Middlewares/Third_Party/FreeRTOS/Source/timers.c **** DaemonTaskMessage_t xMessage;
 864              		.loc 1 383 12 view .LVU215
 865 0068 0020     		movs	r0, #0
 417:Middlewares/Third_Party/FreeRTOS/Source/timers.c **** 	}
 866              		.loc 1 417 27 is_stmt 1 view .LVU216
 420:Middlewares/Third_Party/FreeRTOS/Source/timers.c **** }
 867              		.loc 1 420 2 view .LVU217
 421:Middlewares/Third_Party/FreeRTOS/Source/timers.c **** /*-----------------------------------------------------------*/
 868              		.loc 1 421 1 is_stmt 0 view .LVU218
 869 006a 7047     		bx	lr
 870              	.L61:
 871              		.align	2
 872              	.L60:
 873 006c 00000000 		.word	.LANCHOR2
 874              		.cfi_endproc
 875              	.LFE8:
 877              		.section	.text.prvSwitchTimerLists,"ax",%progbits
 878              		.align	1
 879              		.syntax unified
 880              		.thumb
 881              		.thumb_func
 883              	prvSwitchTimerLists:
 884              	.LFB21:
 858:Middlewares/Third_Party/FreeRTOS/Source/timers.c **** TickType_t xNextExpireTime, xReloadTime;
 885              		.loc 1 858 1 is_stmt 1 view -0
 886              		.cfi_startproc
 887              		@ args = 0, pretend = 0, frame = 0
 888              		@ frame_needed = 0, uses_anonymous_args = 0
 889 0000 70B5     		push	{r4, r5, r6, lr}
 890              	.LCFI23:
 891              		.cfi_def_cfa_offset 16
 892              		.cfi_offset 4, -16
 893              		.cfi_offset 5, -12
 894              		.cfi_offset 6, -8
 895              		.cfi_offset 14, -4
 896 0002 82B0     		sub	sp, sp, #8
 897              	.LCFI24:
 898              		.cfi_def_cfa_offset 24
 859:Middlewares/Third_Party/FreeRTOS/Source/timers.c **** List_t *pxTemp;
 899              		.loc 1 859 1 view .LVU220
 860:Middlewares/Third_Party/FreeRTOS/Source/timers.c **** Timer_t *pxTimer;
 900              		.loc 1 860 1 view .LVU221
 861:Middlewares/Third_Party/FreeRTOS/Source/timers.c **** BaseType_t xResult;
 901              		.loc 1 861 1 view .LVU222
 862:Middlewares/Third_Party/FreeRTOS/Source/timers.c **** 
 902              		.loc 1 862 1 view .LVU223
ARM GAS  C:\msys64\tmp\ccn4BJFy.s 			page 40


 868:Middlewares/Third_Party/FreeRTOS/Source/timers.c **** 	{
 903              		.loc 1 868 2 view .LVU224
 904              	.L64:
 906:Middlewares/Third_Party/FreeRTOS/Source/timers.c **** 		}
 905              		.loc 1 906 28 view .LVU225
 868:Middlewares/Third_Party/FreeRTOS/Source/timers.c **** 	{
 906              		.loc 1 868 7 view .LVU226
 868:Middlewares/Third_Party/FreeRTOS/Source/timers.c **** 	{
 907              		.loc 1 868 9 is_stmt 0 view .LVU227
 908 0004 1C4B     		ldr	r3, .L71
 909 0006 1B68     		ldr	r3, [r3]
 910 0008 1A68     		ldr	r2, [r3]
 868:Middlewares/Third_Party/FreeRTOS/Source/timers.c **** 	{
 911              		.loc 1 868 7 view .LVU228
 912 000a 72B3     		cbz	r2, .L70
 870:Middlewares/Third_Party/FreeRTOS/Source/timers.c **** 
 913              		.loc 1 870 3 is_stmt 1 view .LVU229
 870:Middlewares/Third_Party/FreeRTOS/Source/timers.c **** 
 914              		.loc 1 870 21 is_stmt 0 view .LVU230
 915 000c DB68     		ldr	r3, [r3, #12]
 870:Middlewares/Third_Party/FreeRTOS/Source/timers.c **** 
 916              		.loc 1 870 19 view .LVU231
 917 000e 1E68     		ldr	r6, [r3]
 918              	.LVL67:
 873:Middlewares/Third_Party/FreeRTOS/Source/timers.c **** 		( void ) uxListRemove( &( pxTimer->xTimerListItem ) );
 919              		.loc 1 873 3 is_stmt 1 view .LVU232
 873:Middlewares/Third_Party/FreeRTOS/Source/timers.c **** 		( void ) uxListRemove( &( pxTimer->xTimerListItem ) );
 920              		.loc 1 873 11 is_stmt 0 view .LVU233
 921 0010 DC68     		ldr	r4, [r3, #12]
 922              	.LVL68:
 874:Middlewares/Third_Party/FreeRTOS/Source/timers.c **** 		traceTIMER_EXPIRED( pxTimer );
 923              		.loc 1 874 3 is_stmt 1 view .LVU234
 874:Middlewares/Third_Party/FreeRTOS/Source/timers.c **** 		traceTIMER_EXPIRED( pxTimer );
 924              		.loc 1 874 12 is_stmt 0 view .LVU235
 925 0012 251D     		adds	r5, r4, #4
 926 0014 2846     		mov	r0, r5
 927 0016 FFF7FEFF 		bl	uxListRemove
 928              	.LVL69:
 875:Middlewares/Third_Party/FreeRTOS/Source/timers.c **** 
 929              		.loc 1 875 32 is_stmt 1 view .LVU236
 880:Middlewares/Third_Party/FreeRTOS/Source/timers.c **** 
 930              		.loc 1 880 3 view .LVU237
 880:Middlewares/Third_Party/FreeRTOS/Source/timers.c **** 
 931              		.loc 1 880 10 is_stmt 0 view .LVU238
 932 001a 236A     		ldr	r3, [r4, #32]
 880:Middlewares/Third_Party/FreeRTOS/Source/timers.c **** 
 933              		.loc 1 880 3 view .LVU239
 934 001c 2046     		mov	r0, r4
 935 001e 9847     		blx	r3
 936              	.LVL70:
 882:Middlewares/Third_Party/FreeRTOS/Source/timers.c **** 		{
 937              		.loc 1 882 3 is_stmt 1 view .LVU240
 882:Middlewares/Third_Party/FreeRTOS/Source/timers.c **** 		{
 938              		.loc 1 882 16 is_stmt 0 view .LVU241
 939 0020 94F82830 		ldrb	r3, [r4, #40]	@ zero_extendqisi2
 882:Middlewares/Third_Party/FreeRTOS/Source/timers.c **** 		{
 940              		.loc 1 882 5 view .LVU242
ARM GAS  C:\msys64\tmp\ccn4BJFy.s 			page 41


 941 0024 13F0040F 		tst	r3, #4
 942 0028 ECD0     		beq	.L64
 890:Middlewares/Third_Party/FreeRTOS/Source/timers.c **** 			if( xReloadTime > xNextExpireTime )
 943              		.loc 1 890 4 is_stmt 1 view .LVU243
 890:Middlewares/Third_Party/FreeRTOS/Source/timers.c **** 			if( xReloadTime > xNextExpireTime )
 944              		.loc 1 890 45 is_stmt 0 view .LVU244
 945 002a A369     		ldr	r3, [r4, #24]
 890:Middlewares/Third_Party/FreeRTOS/Source/timers.c **** 			if( xReloadTime > xNextExpireTime )
 946              		.loc 1 890 16 view .LVU245
 947 002c 3344     		add	r3, r3, r6
 948              	.LVL71:
 891:Middlewares/Third_Party/FreeRTOS/Source/timers.c **** 			{
 949              		.loc 1 891 4 is_stmt 1 view .LVU246
 891:Middlewares/Third_Party/FreeRTOS/Source/timers.c **** 			{
 950              		.loc 1 891 6 is_stmt 0 view .LVU247
 951 002e 9E42     		cmp	r6, r3
 952 0030 07D2     		bcs	.L65
 893:Middlewares/Third_Party/FreeRTOS/Source/timers.c **** 				listSET_LIST_ITEM_OWNER( &( pxTimer->xTimerListItem ), pxTimer );
 953              		.loc 1 893 5 is_stmt 1 view .LVU248
 954 0032 6360     		str	r3, [r4, #4]
 894:Middlewares/Third_Party/FreeRTOS/Source/timers.c **** 				vListInsert( pxCurrentTimerList, &( pxTimer->xTimerListItem ) );
 955              		.loc 1 894 5 view .LVU249
 956 0034 2461     		str	r4, [r4, #16]
 895:Middlewares/Third_Party/FreeRTOS/Source/timers.c **** 			}
 957              		.loc 1 895 5 view .LVU250
 958 0036 2946     		mov	r1, r5
 959 0038 0F4B     		ldr	r3, .L71
 960              	.LVL72:
 895:Middlewares/Third_Party/FreeRTOS/Source/timers.c **** 			}
 961              		.loc 1 895 5 is_stmt 0 view .LVU251
 962 003a 1868     		ldr	r0, [r3]
 963 003c FFF7FEFF 		bl	vListInsert
 964              	.LVL73:
 895:Middlewares/Third_Party/FreeRTOS/Source/timers.c **** 			}
 965              		.loc 1 895 5 view .LVU252
 966 0040 E0E7     		b	.L64
 967              	.LVL74:
 968              	.L65:
 899:Middlewares/Third_Party/FreeRTOS/Source/timers.c **** 				configASSERT( xResult );
 969              		.loc 1 899 5 is_stmt 1 view .LVU253
 899:Middlewares/Third_Party/FreeRTOS/Source/timers.c **** 				configASSERT( xResult );
 970              		.loc 1 899 15 is_stmt 0 view .LVU254
 971 0042 0021     		movs	r1, #0
 972 0044 0091     		str	r1, [sp]
 973 0046 0B46     		mov	r3, r1
 974              	.LVL75:
 899:Middlewares/Third_Party/FreeRTOS/Source/timers.c **** 				configASSERT( xResult );
 975              		.loc 1 899 15 view .LVU255
 976 0048 3246     		mov	r2, r6
 977 004a 2046     		mov	r0, r4
 978 004c FFF7FEFF 		bl	xTimerGenericCommand
 979              	.LVL76:
 900:Middlewares/Third_Party/FreeRTOS/Source/timers.c **** 				( void ) xResult;
 980              		.loc 1 900 5 is_stmt 1 view .LVU256
 981 0050 0028     		cmp	r0, #0
 982 0052 D7D1     		bne	.L64
 900:Middlewares/Third_Party/FreeRTOS/Source/timers.c **** 				( void ) xResult;
ARM GAS  C:\msys64\tmp\ccn4BJFy.s 			page 42


 983              		.loc 1 900 5 view .LVU257
 984              	.LBB56:
 985              	.LBI56:
 191:Middlewares/Third_Party/FreeRTOS/Source/portable/GCC/ARM_CM7/r0p1/portmacro.h **** {
 986              		.loc 2 191 30 view .LVU258
 987              	.LBB57:
 193:Middlewares/Third_Party/FreeRTOS/Source/portable/GCC/ARM_CM7/r0p1/portmacro.h **** 
 988              		.loc 2 193 1 view .LVU259
 989              		.loc 2 195 2 view .LVU260
 990              		.syntax unified
 991              	@ 195 "Middlewares/Third_Party/FreeRTOS/Source/portable/GCC/ARM_CM7/r0p1/portmacro.h" 1
 992 0054 4FF05003 			mov r3, #80												
 993 0058 72B6     		cpsid i													
 994 005a 83F31188 		msr basepri, r3											
 995 005e BFF36F8F 		isb														
 996 0062 BFF34F8F 		dsb														
 997 0066 62B6     		cpsie i													
 998              	
 999              	@ 0 "" 2
 1000              	.LVL77:
 1001              		.thumb
 1002              		.syntax unified
 1003              	.L67:
 1004              		.loc 2 195 2 is_stmt 0 view .LVU261
 1005              	.LBE57:
 1006              	.LBE56:
 900:Middlewares/Third_Party/FreeRTOS/Source/timers.c **** 				( void ) xResult;
 1007              		.loc 1 900 5 is_stmt 1 discriminator 1 view .LVU262
 900:Middlewares/Third_Party/FreeRTOS/Source/timers.c **** 				( void ) xResult;
 1008              		.loc 1 900 5 discriminator 1 view .LVU263
 900:Middlewares/Third_Party/FreeRTOS/Source/timers.c **** 				( void ) xResult;
 1009              		.loc 1 900 5 discriminator 1 view .LVU264
 1010 0068 FEE7     		b	.L67
 1011              	.LVL78:
 1012              	.L70:
 910:Middlewares/Third_Party/FreeRTOS/Source/timers.c **** 	pxCurrentTimerList = pxOverflowTimerList;
 1013              		.loc 1 910 2 view .LVU265
 911:Middlewares/Third_Party/FreeRTOS/Source/timers.c **** 	pxOverflowTimerList = pxTemp;
 1014              		.loc 1 911 2 view .LVU266
 911:Middlewares/Third_Party/FreeRTOS/Source/timers.c **** 	pxOverflowTimerList = pxTemp;
 1015              		.loc 1 911 21 is_stmt 0 view .LVU267
 1016 006a 044A     		ldr	r2, .L71+4
 1017 006c 1068     		ldr	r0, [r2]
 1018 006e 0249     		ldr	r1, .L71
 1019 0070 0860     		str	r0, [r1]
 912:Middlewares/Third_Party/FreeRTOS/Source/timers.c **** }
 1020              		.loc 1 912 2 is_stmt 1 view .LVU268
 912:Middlewares/Third_Party/FreeRTOS/Source/timers.c **** }
 1021              		.loc 1 912 22 is_stmt 0 view .LVU269
 1022 0072 1360     		str	r3, [r2]
 913:Middlewares/Third_Party/FreeRTOS/Source/timers.c **** /*-----------------------------------------------------------*/
 1023              		.loc 1 913 1 view .LVU270
 1024 0074 02B0     		add	sp, sp, #8
 1025              	.LCFI25:
 1026              		.cfi_def_cfa_offset 16
 1027              		@ sp needed
 1028 0076 70BD     		pop	{r4, r5, r6, pc}
ARM GAS  C:\msys64\tmp\ccn4BJFy.s 			page 43


 1029              	.L72:
 1030              		.align	2
 1031              	.L71:
 1032 0078 00000000 		.word	.LANCHOR0
 1033 007c 00000000 		.word	.LANCHOR1
 1034              		.cfi_endproc
 1035              	.LFE21:
 1037              		.section	.text.prvSampleTimeNow,"ax",%progbits
 1038              		.align	1
 1039              		.syntax unified
 1040              		.thumb
 1041              		.thumb_func
 1043              	prvSampleTimeNow:
 1044              	.LVL79:
 1045              	.LFB18:
 646:Middlewares/Third_Party/FreeRTOS/Source/timers.c **** TickType_t xTimeNow;
 1046              		.loc 1 646 1 is_stmt 1 view -0
 1047              		.cfi_startproc
 1048              		@ args = 0, pretend = 0, frame = 0
 1049              		@ frame_needed = 0, uses_anonymous_args = 0
 646:Middlewares/Third_Party/FreeRTOS/Source/timers.c **** TickType_t xTimeNow;
 1050              		.loc 1 646 1 is_stmt 0 view .LVU272
 1051 0000 38B5     		push	{r3, r4, r5, lr}
 1052              	.LCFI26:
 1053              		.cfi_def_cfa_offset 16
 1054              		.cfi_offset 3, -16
 1055              		.cfi_offset 4, -12
 1056              		.cfi_offset 5, -8
 1057              		.cfi_offset 14, -4
 1058 0002 0546     		mov	r5, r0
 647:Middlewares/Third_Party/FreeRTOS/Source/timers.c **** PRIVILEGED_DATA static TickType_t xLastTime = ( TickType_t ) 0U; /*lint !e956 Variable is only acce
 1059              		.loc 1 647 1 is_stmt 1 view .LVU273
 648:Middlewares/Third_Party/FreeRTOS/Source/timers.c **** 
 1060              		.loc 1 648 17 view .LVU274
 650:Middlewares/Third_Party/FreeRTOS/Source/timers.c **** 
 1061              		.loc 1 650 2 view .LVU275
 650:Middlewares/Third_Party/FreeRTOS/Source/timers.c **** 
 1062              		.loc 1 650 13 is_stmt 0 view .LVU276
 1063 0004 FFF7FEFF 		bl	xTaskGetTickCount
 1064              	.LVL80:
 650:Middlewares/Third_Party/FreeRTOS/Source/timers.c **** 
 1065              		.loc 1 650 13 view .LVU277
 1066 0008 0446     		mov	r4, r0
 1067              	.LVL81:
 652:Middlewares/Third_Party/FreeRTOS/Source/timers.c **** 	{
 1068              		.loc 1 652 2 is_stmt 1 view .LVU278
 652:Middlewares/Third_Party/FreeRTOS/Source/timers.c **** 	{
 1069              		.loc 1 652 15 is_stmt 0 view .LVU279
 1070 000a 074B     		ldr	r3, .L78
 1071 000c 1B68     		ldr	r3, [r3]
 652:Middlewares/Third_Party/FreeRTOS/Source/timers.c **** 	{
 1072              		.loc 1 652 4 view .LVU280
 1073 000e 8342     		cmp	r3, r0
 1074 0010 05D8     		bhi	.L77
 659:Middlewares/Third_Party/FreeRTOS/Source/timers.c **** 	}
 1075              		.loc 1 659 3 is_stmt 1 view .LVU281
 659:Middlewares/Third_Party/FreeRTOS/Source/timers.c **** 	}
ARM GAS  C:\msys64\tmp\ccn4BJFy.s 			page 44


 1076              		.loc 1 659 29 is_stmt 0 view .LVU282
 1077 0012 0023     		movs	r3, #0
 1078 0014 2B60     		str	r3, [r5]
 1079              	.LVL82:
 1080              	.L75:
 662:Middlewares/Third_Party/FreeRTOS/Source/timers.c **** 
 1081              		.loc 1 662 2 is_stmt 1 view .LVU283
 662:Middlewares/Third_Party/FreeRTOS/Source/timers.c **** 
 1082              		.loc 1 662 12 is_stmt 0 view .LVU284
 1083 0016 044B     		ldr	r3, .L78
 1084 0018 1C60     		str	r4, [r3]
 664:Middlewares/Third_Party/FreeRTOS/Source/timers.c **** }
 1085              		.loc 1 664 2 is_stmt 1 view .LVU285
 665:Middlewares/Third_Party/FreeRTOS/Source/timers.c **** /*-----------------------------------------------------------*/
 1086              		.loc 1 665 1 is_stmt 0 view .LVU286
 1087 001a 2046     		mov	r0, r4
 1088 001c 38BD     		pop	{r3, r4, r5, pc}
 1089              	.LVL83:
 1090              	.L77:
 654:Middlewares/Third_Party/FreeRTOS/Source/timers.c **** 		*pxTimerListsWereSwitched = pdTRUE;
 1091              		.loc 1 654 3 is_stmt 1 view .LVU287
 1092 001e FFF7FEFF 		bl	prvSwitchTimerLists
 1093              	.LVL84:
 655:Middlewares/Third_Party/FreeRTOS/Source/timers.c **** 	}
 1094              		.loc 1 655 3 view .LVU288
 655:Middlewares/Third_Party/FreeRTOS/Source/timers.c **** 	}
 1095              		.loc 1 655 29 is_stmt 0 view .LVU289
 1096 0022 0123     		movs	r3, #1
 1097 0024 2B60     		str	r3, [r5]
 1098 0026 F6E7     		b	.L75
 1099              	.L79:
 1100              		.align	2
 1101              	.L78:
 1102 0028 00000000 		.word	.LANCHOR8
 1103              		.cfi_endproc
 1104              	.LFE18:
 1106              		.section	.text.prvProcessExpiredTimer,"ax",%progbits
 1107              		.align	1
 1108              		.syntax unified
 1109              		.thumb
 1110              		.thumb_func
 1112              	prvProcessExpiredTimer:
 1113              	.LVL85:
 1114              	.LFB14:
 483:Middlewares/Third_Party/FreeRTOS/Source/timers.c **** BaseType_t xResult;
 1115              		.loc 1 483 1 is_stmt 1 view -0
 1116              		.cfi_startproc
 1117              		@ args = 0, pretend = 0, frame = 0
 1118              		@ frame_needed = 0, uses_anonymous_args = 0
 483:Middlewares/Third_Party/FreeRTOS/Source/timers.c **** BaseType_t xResult;
 1119              		.loc 1 483 1 is_stmt 0 view .LVU291
 1120 0000 70B5     		push	{r4, r5, r6, lr}
 1121              	.LCFI27:
 1122              		.cfi_def_cfa_offset 16
 1123              		.cfi_offset 4, -16
 1124              		.cfi_offset 5, -12
 1125              		.cfi_offset 6, -8
ARM GAS  C:\msys64\tmp\ccn4BJFy.s 			page 45


 1126              		.cfi_offset 14, -4
 1127 0002 82B0     		sub	sp, sp, #8
 1128              	.LCFI28:
 1129              		.cfi_def_cfa_offset 24
 1130 0004 0646     		mov	r6, r0
 1131 0006 0D46     		mov	r5, r1
 484:Middlewares/Third_Party/FreeRTOS/Source/timers.c **** Timer_t * const pxTimer = ( Timer_t * ) listGET_OWNER_OF_HEAD_ENTRY( pxCurrentTimerList ); /*lint !
 1132              		.loc 1 484 1 is_stmt 1 view .LVU292
 485:Middlewares/Third_Party/FreeRTOS/Source/timers.c **** 
 1133              		.loc 1 485 1 view .LVU293
 485:Middlewares/Third_Party/FreeRTOS/Source/timers.c **** 
 1134              		.loc 1 485 41 is_stmt 0 view .LVU294
 1135 0008 1849     		ldr	r1, .L86
 1136              	.LVL86:
 485:Middlewares/Third_Party/FreeRTOS/Source/timers.c **** 
 1137              		.loc 1 485 41 view .LVU295
 1138 000a 0968     		ldr	r1, [r1]
 1139 000c C968     		ldr	r1, [r1, #12]
 485:Middlewares/Third_Party/FreeRTOS/Source/timers.c **** 
 1140              		.loc 1 485 17 view .LVU296
 1141 000e CC68     		ldr	r4, [r1, #12]
 1142              	.LVL87:
 489:Middlewares/Third_Party/FreeRTOS/Source/timers.c **** 	traceTIMER_EXPIRED( pxTimer );
 1143              		.loc 1 489 2 is_stmt 1 view .LVU297
 489:Middlewares/Third_Party/FreeRTOS/Source/timers.c **** 	traceTIMER_EXPIRED( pxTimer );
 1144              		.loc 1 489 11 is_stmt 0 view .LVU298
 1145 0010 201D     		adds	r0, r4, #4
 1146              	.LVL88:
 489:Middlewares/Third_Party/FreeRTOS/Source/timers.c **** 	traceTIMER_EXPIRED( pxTimer );
 1147              		.loc 1 489 11 view .LVU299
 1148 0012 FFF7FEFF 		bl	uxListRemove
 1149              	.LVL89:
 490:Middlewares/Third_Party/FreeRTOS/Source/timers.c **** 
 1150              		.loc 1 490 31 is_stmt 1 view .LVU300
 494:Middlewares/Third_Party/FreeRTOS/Source/timers.c **** 	{
 1151              		.loc 1 494 2 view .LVU301
 494:Middlewares/Third_Party/FreeRTOS/Source/timers.c **** 	{
 1152              		.loc 1 494 15 is_stmt 0 view .LVU302
 1153 0016 94F828C0 		ldrb	ip, [r4, #40]	@ zero_extendqisi2
 494:Middlewares/Third_Party/FreeRTOS/Source/timers.c **** 	{
 1154              		.loc 1 494 4 view .LVU303
 1155 001a 1CF0040F 		tst	ip, #4
 1156 001e 08D1     		bne	.L85
 514:Middlewares/Third_Party/FreeRTOS/Source/timers.c **** 		mtCOVERAGE_TEST_MARKER();
 1157              		.loc 1 514 3 is_stmt 1 view .LVU304
 514:Middlewares/Third_Party/FreeRTOS/Source/timers.c **** 		mtCOVERAGE_TEST_MARKER();
 1158              		.loc 1 514 21 is_stmt 0 view .LVU305
 1159 0020 2CF0010C 		bic	ip, ip, #1
 1160 0024 84F828C0 		strb	ip, [r4, #40]
 1161              	.L82:
 515:Middlewares/Third_Party/FreeRTOS/Source/timers.c **** 	}
 1162              		.loc 1 515 27 is_stmt 1 view .LVU306
 519:Middlewares/Third_Party/FreeRTOS/Source/timers.c **** }
 1163              		.loc 1 519 2 view .LVU307
 519:Middlewares/Third_Party/FreeRTOS/Source/timers.c **** }
 1164              		.loc 1 519 9 is_stmt 0 view .LVU308
 1165 0028 236A     		ldr	r3, [r4, #32]
ARM GAS  C:\msys64\tmp\ccn4BJFy.s 			page 46


 519:Middlewares/Third_Party/FreeRTOS/Source/timers.c **** }
 1166              		.loc 1 519 2 view .LVU309
 1167 002a 2046     		mov	r0, r4
 1168 002c 9847     		blx	r3
 1169              	.LVL90:
 520:Middlewares/Third_Party/FreeRTOS/Source/timers.c **** /*-----------------------------------------------------------*/
 1170              		.loc 1 520 1 view .LVU310
 1171 002e 02B0     		add	sp, sp, #8
 1172              	.LCFI29:
 1173              		.cfi_remember_state
 1174              		.cfi_def_cfa_offset 16
 1175              		@ sp needed
 1176 0030 70BD     		pop	{r4, r5, r6, pc}
 1177              	.LVL91:
 1178              	.L85:
 1179              	.LCFI30:
 1180              		.cfi_restore_state
 499:Middlewares/Third_Party/FreeRTOS/Source/timers.c **** 		{
 1181              		.loc 1 499 3 is_stmt 1 view .LVU311
 499:Middlewares/Third_Party/FreeRTOS/Source/timers.c **** 		{
 1182              		.loc 1 499 71 is_stmt 0 view .LVU312
 1183 0032 A169     		ldr	r1, [r4, #24]
 499:Middlewares/Third_Party/FreeRTOS/Source/timers.c **** 		{
 1184              		.loc 1 499 7 view .LVU313
 1185 0034 3346     		mov	r3, r6
 1186 0036 2A46     		mov	r2, r5
 1187 0038 3144     		add	r1, r1, r6
 1188 003a 2046     		mov	r0, r4
 1189 003c FFF7FEFF 		bl	prvInsertTimerInActiveList
 1190              	.LVL92:
 499:Middlewares/Third_Party/FreeRTOS/Source/timers.c **** 		{
 1191              		.loc 1 499 5 view .LVU314
 1192 0040 0028     		cmp	r0, #0
 1193 0042 F1D0     		beq	.L82
 503:Middlewares/Third_Party/FreeRTOS/Source/timers.c **** 			configASSERT( xResult );
 1194              		.loc 1 503 4 is_stmt 1 view .LVU315
 503:Middlewares/Third_Party/FreeRTOS/Source/timers.c **** 			configASSERT( xResult );
 1195              		.loc 1 503 14 is_stmt 0 view .LVU316
 1196 0044 0021     		movs	r1, #0
 1197 0046 0091     		str	r1, [sp]
 1198 0048 0B46     		mov	r3, r1
 1199 004a 3246     		mov	r2, r6
 1200 004c 2046     		mov	r0, r4
 1201 004e FFF7FEFF 		bl	xTimerGenericCommand
 1202              	.LVL93:
 504:Middlewares/Third_Party/FreeRTOS/Source/timers.c **** 			( void ) xResult;
 1203              		.loc 1 504 4 is_stmt 1 view .LVU317
 1204 0052 0028     		cmp	r0, #0
 1205 0054 E8D1     		bne	.L82
 504:Middlewares/Third_Party/FreeRTOS/Source/timers.c **** 			( void ) xResult;
 1206              		.loc 1 504 4 view .LVU318
 1207              	.LBB58:
 1208              	.LBI58:
 191:Middlewares/Third_Party/FreeRTOS/Source/portable/GCC/ARM_CM7/r0p1/portmacro.h **** {
 1209              		.loc 2 191 30 view .LVU319
 1210              	.LBB59:
 193:Middlewares/Third_Party/FreeRTOS/Source/portable/GCC/ARM_CM7/r0p1/portmacro.h **** 
ARM GAS  C:\msys64\tmp\ccn4BJFy.s 			page 47


 1211              		.loc 2 193 1 view .LVU320
 1212              		.loc 2 195 2 view .LVU321
 1213              		.syntax unified
 1214              	@ 195 "Middlewares/Third_Party/FreeRTOS/Source/portable/GCC/ARM_CM7/r0p1/portmacro.h" 1
 1215 0056 4FF05003 			mov r3, #80												
 1216 005a 72B6     		cpsid i													
 1217 005c 83F31188 		msr basepri, r3											
 1218 0060 BFF36F8F 		isb														
 1219 0064 BFF34F8F 		dsb														
 1220 0068 62B6     		cpsie i													
 1221              	
 1222              	@ 0 "" 2
 1223              	.LVL94:
 1224              		.thumb
 1225              		.syntax unified
 1226              	.L83:
 1227              		.loc 2 195 2 is_stmt 0 view .LVU322
 1228              	.LBE59:
 1229              	.LBE58:
 504:Middlewares/Third_Party/FreeRTOS/Source/timers.c **** 			( void ) xResult;
 1230              		.loc 1 504 4 is_stmt 1 discriminator 1 view .LVU323
 504:Middlewares/Third_Party/FreeRTOS/Source/timers.c **** 			( void ) xResult;
 1231              		.loc 1 504 4 discriminator 1 view .LVU324
 504:Middlewares/Third_Party/FreeRTOS/Source/timers.c **** 			( void ) xResult;
 1232              		.loc 1 504 4 discriminator 1 view .LVU325
 1233 006a FEE7     		b	.L83
 1234              	.L87:
 1235              		.align	2
 1236              	.L86:
 1237 006c 00000000 		.word	.LANCHOR0
 1238              		.cfi_endproc
 1239              	.LFE14:
 1241              		.section	.text.prvProcessTimerOrBlockTask,"ax",%progbits
 1242              		.align	1
 1243              		.syntax unified
 1244              		.thumb
 1245              		.thumb_func
 1247              	prvProcessTimerOrBlockTask:
 1248              	.LVL95:
 1249              	.LFB16:
 560:Middlewares/Third_Party/FreeRTOS/Source/timers.c **** TickType_t xTimeNow;
 1250              		.loc 1 560 1 view -0
 1251              		.cfi_startproc
 1252              		@ args = 0, pretend = 0, frame = 8
 1253              		@ frame_needed = 0, uses_anonymous_args = 0
 560:Middlewares/Third_Party/FreeRTOS/Source/timers.c **** TickType_t xTimeNow;
 1254              		.loc 1 560 1 is_stmt 0 view .LVU327
 1255 0000 70B5     		push	{r4, r5, r6, lr}
 1256              	.LCFI31:
 1257              		.cfi_def_cfa_offset 16
 1258              		.cfi_offset 4, -16
 1259              		.cfi_offset 5, -12
 1260              		.cfi_offset 6, -8
 1261              		.cfi_offset 14, -4
 1262 0002 82B0     		sub	sp, sp, #8
 1263              	.LCFI32:
 1264              		.cfi_def_cfa_offset 24
ARM GAS  C:\msys64\tmp\ccn4BJFy.s 			page 48


 1265 0004 0646     		mov	r6, r0
 1266 0006 0C46     		mov	r4, r1
 561:Middlewares/Third_Party/FreeRTOS/Source/timers.c **** BaseType_t xTimerListsWereSwitched;
 1267              		.loc 1 561 1 is_stmt 1 view .LVU328
 562:Middlewares/Third_Party/FreeRTOS/Source/timers.c **** 
 1268              		.loc 1 562 1 view .LVU329
 564:Middlewares/Third_Party/FreeRTOS/Source/timers.c **** 	{
 1269              		.loc 1 564 2 view .LVU330
 1270 0008 FFF7FEFF 		bl	vTaskSuspendAll
 1271              	.LVL96:
 571:Middlewares/Third_Party/FreeRTOS/Source/timers.c **** 		if( xTimerListsWereSwitched == pdFALSE )
 1272              		.loc 1 571 3 view .LVU331
 571:Middlewares/Third_Party/FreeRTOS/Source/timers.c **** 		if( xTimerListsWereSwitched == pdFALSE )
 1273              		.loc 1 571 14 is_stmt 0 view .LVU332
 1274 000c 01A8     		add	r0, sp, #4
 1275 000e FFF7FEFF 		bl	prvSampleTimeNow
 1276              	.LVL97:
 572:Middlewares/Third_Party/FreeRTOS/Source/timers.c **** 		{
 1277              		.loc 1 572 3 is_stmt 1 view .LVU333
 572:Middlewares/Third_Party/FreeRTOS/Source/timers.c **** 		{
 1278              		.loc 1 572 31 is_stmt 0 view .LVU334
 1279 0012 019B     		ldr	r3, [sp, #4]
 572:Middlewares/Third_Party/FreeRTOS/Source/timers.c **** 		{
 1280              		.loc 1 572 5 view .LVU335
 1281 0014 3BBB     		cbnz	r3, .L89
 1282 0016 0546     		mov	r5, r0
 575:Middlewares/Third_Party/FreeRTOS/Source/timers.c **** 			{
 1283              		.loc 1 575 4 is_stmt 1 view .LVU336
 575:Middlewares/Third_Party/FreeRTOS/Source/timers.c **** 			{
 1284              		.loc 1 575 6 is_stmt 0 view .LVU337
 1285 0018 B042     		cmp	r0, r6
 1286 001a 28BF     		it	cs
 1287 001c 002C     		cmpcs	r4, #0
 1288 001e 19D0     		beq	.L95
 588:Middlewares/Third_Party/FreeRTOS/Source/timers.c **** 				{
 1289              		.loc 1 588 5 is_stmt 1 view .LVU338
 588:Middlewares/Third_Party/FreeRTOS/Source/timers.c **** 				{
 1290              		.loc 1 588 7 is_stmt 0 view .LVU339
 1291 0020 24B1     		cbz	r4, .L92
 592:Middlewares/Third_Party/FreeRTOS/Source/timers.c **** 				}
 1292              		.loc 1 592 6 is_stmt 1 view .LVU340
 592:Middlewares/Third_Party/FreeRTOS/Source/timers.c **** 				}
 1293              		.loc 1 592 22 is_stmt 0 view .LVU341
 1294 0022 134A     		ldr	r2, .L96
 1295 0024 1268     		ldr	r2, [r2]
 1296 0026 1268     		ldr	r2, [r2]
 1297 0028 DAB9     		cbnz	r2, .L93
 1298 002a 0124     		movs	r4, #1
 1299              	.LVL98:
 1300              	.L92:
 595:Middlewares/Third_Party/FreeRTOS/Source/timers.c **** 
 1301              		.loc 1 595 5 is_stmt 1 view .LVU342
 1302 002c 2246     		mov	r2, r4
 1303 002e 711B     		subs	r1, r6, r5
 1304 0030 104B     		ldr	r3, .L96+4
 1305 0032 1868     		ldr	r0, [r3]
 1306              	.LVL99:
ARM GAS  C:\msys64\tmp\ccn4BJFy.s 			page 49


 595:Middlewares/Third_Party/FreeRTOS/Source/timers.c **** 
 1307              		.loc 1 595 5 is_stmt 0 view .LVU343
 1308 0034 FFF7FEFF 		bl	vQueueWaitForMessageRestricted
 1309              	.LVL100:
 597:Middlewares/Third_Party/FreeRTOS/Source/timers.c **** 				{
 1310              		.loc 1 597 5 is_stmt 1 view .LVU344
 597:Middlewares/Third_Party/FreeRTOS/Source/timers.c **** 				{
 1311              		.loc 1 597 9 is_stmt 0 view .LVU345
 1312 0038 FFF7FEFF 		bl	xTaskResumeAll
 1313              	.LVL101:
 597:Middlewares/Third_Party/FreeRTOS/Source/timers.c **** 				{
 1314              		.loc 1 597 7 view .LVU346
 1315 003c A8B9     		cbnz	r0, .L88
 603:Middlewares/Third_Party/FreeRTOS/Source/timers.c **** 				}
 1316              		.loc 1 603 6 is_stmt 1 view .LVU347
 1317 003e 4FF0E023 		mov	r3, #-536813568
 1318 0042 4FF08052 		mov	r2, #268435456
 1319 0046 C3F8042D 		str	r2, [r3, #3332]
 603:Middlewares/Third_Party/FreeRTOS/Source/timers.c **** 				}
 1320              		.loc 1 603 6 view .LVU348
 1321              		.syntax unified
 1322              	@ 603 "Middlewares/Third_Party/FreeRTOS/Source/timers.c" 1
 1323 004a BFF34F8F 		dsb
 1324              	@ 0 "" 2
 603:Middlewares/Third_Party/FreeRTOS/Source/timers.c **** 				}
 1325              		.loc 1 603 6 view .LVU349
 1326              	@ 603 "Middlewares/Third_Party/FreeRTOS/Source/timers.c" 1
 1327 004e BFF36F8F 		isb
 1328              	@ 0 "" 2
 603:Middlewares/Third_Party/FreeRTOS/Source/timers.c **** 				}
 1329              		.loc 1 603 28 view .LVU350
 1330              		.thumb
 1331              		.syntax unified
 1332 0052 0AE0     		b	.L88
 1333              	.LVL102:
 1334              	.L95:
 577:Middlewares/Third_Party/FreeRTOS/Source/timers.c **** 				prvProcessExpiredTimer( xNextExpireTime, xTimeNow );
 1335              		.loc 1 577 5 view .LVU351
 577:Middlewares/Third_Party/FreeRTOS/Source/timers.c **** 				prvProcessExpiredTimer( xNextExpireTime, xTimeNow );
 1336              		.loc 1 577 14 is_stmt 0 view .LVU352
 1337 0054 FFF7FEFF 		bl	xTaskResumeAll
 1338              	.LVL103:
 578:Middlewares/Third_Party/FreeRTOS/Source/timers.c **** 			}
 1339              		.loc 1 578 5 is_stmt 1 view .LVU353
 1340 0058 2946     		mov	r1, r5
 1341 005a 3046     		mov	r0, r6
 1342 005c FFF7FEFF 		bl	prvProcessExpiredTimer
 1343              	.LVL104:
 1344 0060 03E0     		b	.L88
 1345              	.LVL105:
 1346              	.L93:
 592:Middlewares/Third_Party/FreeRTOS/Source/timers.c **** 				}
 1347              		.loc 1 592 22 is_stmt 0 view .LVU354
 1348 0062 1C46     		mov	r4, r3
 1349              	.LVL106:
 592:Middlewares/Third_Party/FreeRTOS/Source/timers.c **** 				}
 1350              		.loc 1 592 22 view .LVU355
ARM GAS  C:\msys64\tmp\ccn4BJFy.s 			page 50


 1351 0064 E2E7     		b	.L92
 1352              	.LVL107:
 1353              	.L89:
 613:Middlewares/Third_Party/FreeRTOS/Source/timers.c **** 		}
 1354              		.loc 1 613 4 is_stmt 1 view .LVU356
 613:Middlewares/Third_Party/FreeRTOS/Source/timers.c **** 		}
 1355              		.loc 1 613 13 is_stmt 0 view .LVU357
 1356 0066 FFF7FEFF 		bl	xTaskResumeAll
 1357              	.LVL108:
 1358              	.L88:
 616:Middlewares/Third_Party/FreeRTOS/Source/timers.c **** /*-----------------------------------------------------------*/
 1359              		.loc 1 616 1 view .LVU358
 1360 006a 02B0     		add	sp, sp, #8
 1361              	.LCFI33:
 1362              		.cfi_def_cfa_offset 16
 1363              		@ sp needed
 1364 006c 70BD     		pop	{r4, r5, r6, pc}
 1365              	.LVL109:
 1366              	.L97:
 616:Middlewares/Third_Party/FreeRTOS/Source/timers.c **** /*-----------------------------------------------------------*/
 1367              		.loc 1 616 1 view .LVU359
 1368 006e 00BF     		.align	2
 1369              	.L96:
 1370 0070 00000000 		.word	.LANCHOR1
 1371 0074 00000000 		.word	.LANCHOR2
 1372              		.cfi_endproc
 1373              	.LFE16:
 1375              		.section	.text.prvProcessReceivedCommands,"ax",%progbits
 1376              		.align	1
 1377              		.syntax unified
 1378              		.thumb
 1379              		.thumb_func
 1381              	prvProcessReceivedCommands:
 1382              	.LFB20:
 710:Middlewares/Third_Party/FreeRTOS/Source/timers.c **** DaemonTaskMessage_t xMessage;
 1383              		.loc 1 710 1 is_stmt 1 view -0
 1384              		.cfi_startproc
 1385              		@ args = 0, pretend = 0, frame = 24
 1386              		@ frame_needed = 0, uses_anonymous_args = 0
 1387 0000 10B5     		push	{r4, lr}
 1388              	.LCFI34:
 1389              		.cfi_def_cfa_offset 8
 1390              		.cfi_offset 4, -8
 1391              		.cfi_offset 14, -4
 1392 0002 88B0     		sub	sp, sp, #32
 1393              	.LCFI35:
 1394              		.cfi_def_cfa_offset 40
 711:Middlewares/Third_Party/FreeRTOS/Source/timers.c **** Timer_t *pxTimer;
 1395              		.loc 1 711 1 view .LVU361
 712:Middlewares/Third_Party/FreeRTOS/Source/timers.c **** BaseType_t xTimerListsWereSwitched, xResult;
 1396              		.loc 1 712 1 view .LVU362
 713:Middlewares/Third_Party/FreeRTOS/Source/timers.c **** TickType_t xTimeNow;
 1397              		.loc 1 713 1 view .LVU363
 714:Middlewares/Third_Party/FreeRTOS/Source/timers.c **** 
 1398              		.loc 1 714 1 view .LVU364
 716:Middlewares/Third_Party/FreeRTOS/Source/timers.c **** 	{
 1399              		.loc 1 716 2 view .LVU365
ARM GAS  C:\msys64\tmp\ccn4BJFy.s 			page 51


 716:Middlewares/Third_Party/FreeRTOS/Source/timers.c **** 	{
 1400              		.loc 1 716 7 is_stmt 0 view .LVU366
 1401 0004 02E0     		b	.L101
 1402              	.L100:
 735:Middlewares/Third_Party/FreeRTOS/Source/timers.c **** 			}
 1403              		.loc 1 735 29 is_stmt 1 view .LVU367
 742:Middlewares/Third_Party/FreeRTOS/Source/timers.c **** 		{
 1404              		.loc 1 742 3 view .LVU368
 742:Middlewares/Third_Party/FreeRTOS/Source/timers.c **** 		{
 1405              		.loc 1 742 15 is_stmt 0 view .LVU369
 1406 0006 049B     		ldr	r3, [sp, #16]
 742:Middlewares/Third_Party/FreeRTOS/Source/timers.c **** 		{
 1407              		.loc 1 742 5 view .LVU370
 1408 0008 002B     		cmp	r3, #0
 1409 000a 0FDA     		bge	.L116
 1410              	.L101:
 716:Middlewares/Third_Party/FreeRTOS/Source/timers.c **** 	{
 1411              		.loc 1 716 7 is_stmt 1 view .LVU371
 716:Middlewares/Third_Party/FreeRTOS/Source/timers.c **** 	{
 1412              		.loc 1 716 9 is_stmt 0 view .LVU372
 1413 000c 0022     		movs	r2, #0
 1414 000e 04A9     		add	r1, sp, #16
 1415 0010 3F4B     		ldr	r3, .L120
 1416 0012 1868     		ldr	r0, [r3]
 1417 0014 FFF7FEFF 		bl	xQueueReceive
 1418              	.LVL110:
 716:Middlewares/Third_Party/FreeRTOS/Source/timers.c **** 	{
 1419              		.loc 1 716 7 view .LVU373
 1420 0018 0028     		cmp	r0, #0
 1421 001a 77D0     		beq	.L117
 722:Middlewares/Third_Party/FreeRTOS/Source/timers.c **** 			{
 1422              		.loc 1 722 4 is_stmt 1 view .LVU374
 722:Middlewares/Third_Party/FreeRTOS/Source/timers.c **** 			{
 1423              		.loc 1 722 16 is_stmt 0 view .LVU375
 1424 001c 049B     		ldr	r3, [sp, #16]
 722:Middlewares/Third_Party/FreeRTOS/Source/timers.c **** 			{
 1425              		.loc 1 722 6 view .LVU376
 1426 001e 002B     		cmp	r3, #0
 1427 0020 F1DA     		bge	.L100
 1428              	.LBB60:
 724:Middlewares/Third_Party/FreeRTOS/Source/timers.c **** 
 1429              		.loc 1 724 5 is_stmt 1 discriminator 2 view .LVU377
 1430              	.LVL111:
 728:Middlewares/Third_Party/FreeRTOS/Source/timers.c **** 
 1431              		.loc 1 728 5 discriminator 2 view .LVU378
 728:Middlewares/Third_Party/FreeRTOS/Source/timers.c **** 
 1432              		.loc 1 728 31 discriminator 2 view .LVU379
 731:Middlewares/Third_Party/FreeRTOS/Source/timers.c **** 			}
 1433              		.loc 1 731 5 discriminator 2 view .LVU380
 1434 0022 0799     		ldr	r1, [sp, #28]
 1435 0024 0698     		ldr	r0, [sp, #24]
 1436 0026 059B     		ldr	r3, [sp, #20]
 1437 0028 9847     		blx	r3
 1438              	.LVL112:
 1439              	.LBE60:
 1440 002a ECE7     		b	.L100
 1441              	.LVL113:
ARM GAS  C:\msys64\tmp\ccn4BJFy.s 			page 52


 1442              	.L116:
 746:Middlewares/Third_Party/FreeRTOS/Source/timers.c **** 
 1443              		.loc 1 746 4 view .LVU381
 746:Middlewares/Third_Party/FreeRTOS/Source/timers.c **** 
 1444              		.loc 1 746 12 is_stmt 0 view .LVU382
 1445 002c 069C     		ldr	r4, [sp, #24]
 1446              	.LVL114:
 748:Middlewares/Third_Party/FreeRTOS/Source/timers.c **** 			{
 1447              		.loc 1 748 4 is_stmt 1 view .LVU383
 748:Middlewares/Third_Party/FreeRTOS/Source/timers.c **** 			{
 1448              		.loc 1 748 8 is_stmt 0 view .LVU384
 1449 002e 6369     		ldr	r3, [r4, #20]
 748:Middlewares/Third_Party/FreeRTOS/Source/timers.c **** 			{
 1450              		.loc 1 748 6 view .LVU385
 1451 0030 13B1     		cbz	r3, .L102
 751:Middlewares/Third_Party/FreeRTOS/Source/timers.c **** 			}
 1452              		.loc 1 751 5 is_stmt 1 view .LVU386
 751:Middlewares/Third_Party/FreeRTOS/Source/timers.c **** 			}
 1453              		.loc 1 751 14 is_stmt 0 view .LVU387
 1454 0032 201D     		adds	r0, r4, #4
 1455 0034 FFF7FEFF 		bl	uxListRemove
 1456              	.LVL115:
 1457              	.L102:
 755:Middlewares/Third_Party/FreeRTOS/Source/timers.c **** 			}
 1458              		.loc 1 755 29 is_stmt 1 view .LVU388
 758:Middlewares/Third_Party/FreeRTOS/Source/timers.c **** 
 1459              		.loc 1 758 106 view .LVU389
 766:Middlewares/Third_Party/FreeRTOS/Source/timers.c **** 
 1460              		.loc 1 766 4 view .LVU390
 766:Middlewares/Third_Party/FreeRTOS/Source/timers.c **** 
 1461              		.loc 1 766 15 is_stmt 0 view .LVU391
 1462 0038 03A8     		add	r0, sp, #12
 1463 003a FFF7FEFF 		bl	prvSampleTimeNow
 1464              	.LVL116:
 768:Middlewares/Third_Party/FreeRTOS/Source/timers.c **** 			{
 1465              		.loc 1 768 4 is_stmt 1 view .LVU392
 768:Middlewares/Third_Party/FreeRTOS/Source/timers.c **** 			{
 1466              		.loc 1 768 20 is_stmt 0 view .LVU393
 1467 003e 049B     		ldr	r3, [sp, #16]
 768:Middlewares/Third_Party/FreeRTOS/Source/timers.c **** 			{
 1468              		.loc 1 768 4 view .LVU394
 1469 0040 092B     		cmp	r3, #9
 1470 0042 E3D8     		bhi	.L101
 1471 0044 DFE803F0 		tbb	[pc, r3]
 1472              	.L105:
 1473 0048 05       		.byte	(.L107-.L105)/2
 1474 0049 05       		.byte	(.L107-.L105)/2
 1475 004a 05       		.byte	(.L107-.L105)/2
 1476 004b 32       		.byte	(.L106-.L105)/2
 1477 004c 39       		.byte	(.L104-.L105)/2
 1478 004d 54       		.byte	(.L108-.L105)/2
 1479 004e 05       		.byte	(.L107-.L105)/2
 1480 004f 05       		.byte	(.L107-.L105)/2
 1481 0050 32       		.byte	(.L106-.L105)/2
 1482 0051 39       		.byte	(.L104-.L105)/2
 1483              		.p2align 1
 1484              	.L107:
ARM GAS  C:\msys64\tmp\ccn4BJFy.s 			page 53


 776:Middlewares/Third_Party/FreeRTOS/Source/timers.c **** 					if( prvInsertTimerInActiveList( pxTimer,  xMessage.u.xTimerParameters.xMessageValue + pxTimer-
 1485              		.loc 1 776 6 is_stmt 1 view .LVU395
 776:Middlewares/Third_Party/FreeRTOS/Source/timers.c **** 					if( prvInsertTimerInActiveList( pxTimer,  xMessage.u.xTimerParameters.xMessageValue + pxTimer-
 1486              		.loc 1 776 24 is_stmt 0 view .LVU396
 1487 0052 94F82830 		ldrb	r3, [r4, #40]	@ zero_extendqisi2
 1488 0056 43F00103 		orr	r3, r3, #1
 1489 005a 84F82830 		strb	r3, [r4, #40]
 777:Middlewares/Third_Party/FreeRTOS/Source/timers.c **** 					{
 1490              		.loc 1 777 6 is_stmt 1 view .LVU397
 777:Middlewares/Third_Party/FreeRTOS/Source/timers.c **** 					{
 1491              		.loc 1 777 75 is_stmt 0 view .LVU398
 1492 005e 059B     		ldr	r3, [sp, #20]
 777:Middlewares/Third_Party/FreeRTOS/Source/timers.c **** 					{
 1493              		.loc 1 777 99 view .LVU399
 1494 0060 A169     		ldr	r1, [r4, #24]
 777:Middlewares/Third_Party/FreeRTOS/Source/timers.c **** 					{
 1495              		.loc 1 777 10 view .LVU400
 1496 0062 0246     		mov	r2, r0
 1497 0064 1944     		add	r1, r1, r3
 1498 0066 2046     		mov	r0, r4
 1499              	.LVL117:
 777:Middlewares/Third_Party/FreeRTOS/Source/timers.c **** 					{
 1500              		.loc 1 777 10 view .LVU401
 1501 0068 FFF7FEFF 		bl	prvInsertTimerInActiveList
 1502              	.LVL118:
 777:Middlewares/Third_Party/FreeRTOS/Source/timers.c **** 					{
 1503              		.loc 1 777 8 view .LVU402
 1504 006c 0028     		cmp	r0, #0
 1505 006e CDD0     		beq	.L101
 781:Middlewares/Third_Party/FreeRTOS/Source/timers.c **** 						traceTIMER_EXPIRED( pxTimer );
 1506              		.loc 1 781 7 is_stmt 1 view .LVU403
 781:Middlewares/Third_Party/FreeRTOS/Source/timers.c **** 						traceTIMER_EXPIRED( pxTimer );
 1507              		.loc 1 781 14 is_stmt 0 view .LVU404
 1508 0070 236A     		ldr	r3, [r4, #32]
 781:Middlewares/Third_Party/FreeRTOS/Source/timers.c **** 						traceTIMER_EXPIRED( pxTimer );
 1509              		.loc 1 781 7 view .LVU405
 1510 0072 2046     		mov	r0, r4
 1511 0074 9847     		blx	r3
 1512              	.LVL119:
 782:Middlewares/Third_Party/FreeRTOS/Source/timers.c **** 
 1513              		.loc 1 782 36 is_stmt 1 view .LVU406
 784:Middlewares/Third_Party/FreeRTOS/Source/timers.c **** 						{
 1514              		.loc 1 784 7 view .LVU407
 784:Middlewares/Third_Party/FreeRTOS/Source/timers.c **** 						{
 1515              		.loc 1 784 20 is_stmt 0 view .LVU408
 1516 0076 94F82830 		ldrb	r3, [r4, #40]	@ zero_extendqisi2
 784:Middlewares/Third_Party/FreeRTOS/Source/timers.c **** 						{
 1517              		.loc 1 784 9 view .LVU409
 1518 007a 13F0040F 		tst	r3, #4
 1519 007e C5D0     		beq	.L101
 786:Middlewares/Third_Party/FreeRTOS/Source/timers.c **** 							configASSERT( xResult );
 1520              		.loc 1 786 8 is_stmt 1 view .LVU410
 786:Middlewares/Third_Party/FreeRTOS/Source/timers.c **** 							configASSERT( xResult );
 1521              		.loc 1 786 129 is_stmt 0 view .LVU411
 1522 0080 A269     		ldr	r2, [r4, #24]
 786:Middlewares/Third_Party/FreeRTOS/Source/timers.c **** 							configASSERT( xResult );
 1523              		.loc 1 786 18 view .LVU412
ARM GAS  C:\msys64\tmp\ccn4BJFy.s 			page 54


 1524 0082 0021     		movs	r1, #0
 1525 0084 0091     		str	r1, [sp]
 1526 0086 0B46     		mov	r3, r1
 1527 0088 0598     		ldr	r0, [sp, #20]
 1528 008a 0244     		add	r2, r2, r0
 1529 008c 2046     		mov	r0, r4
 1530 008e FFF7FEFF 		bl	xTimerGenericCommand
 1531              	.LVL120:
 787:Middlewares/Third_Party/FreeRTOS/Source/timers.c **** 							( void ) xResult;
 1532              		.loc 1 787 8 is_stmt 1 view .LVU413
 1533 0092 0028     		cmp	r0, #0
 1534 0094 BAD1     		bne	.L101
 787:Middlewares/Third_Party/FreeRTOS/Source/timers.c **** 							( void ) xResult;
 1535              		.loc 1 787 8 view .LVU414
 1536              	.LBB61:
 1537              	.LBI61:
 191:Middlewares/Third_Party/FreeRTOS/Source/portable/GCC/ARM_CM7/r0p1/portmacro.h **** {
 1538              		.loc 2 191 30 view .LVU415
 1539              	.LBB62:
 193:Middlewares/Third_Party/FreeRTOS/Source/portable/GCC/ARM_CM7/r0p1/portmacro.h **** 
 1540              		.loc 2 193 1 view .LVU416
 1541              		.loc 2 195 2 view .LVU417
 1542              		.syntax unified
 1543              	@ 195 "Middlewares/Third_Party/FreeRTOS/Source/portable/GCC/ARM_CM7/r0p1/portmacro.h" 1
 1544 0096 4FF05003 			mov r3, #80												
 1545 009a 72B6     		cpsid i													
 1546 009c 83F31188 		msr basepri, r3											
 1547 00a0 BFF36F8F 		isb														
 1548 00a4 BFF34F8F 		dsb														
 1549 00a8 62B6     		cpsie i													
 1550              	
 1551              	@ 0 "" 2
 1552              	.LVL121:
 1553              		.thumb
 1554              		.syntax unified
 1555              	.L110:
 1556              		.loc 2 195 2 is_stmt 0 view .LVU418
 1557              	.LBE62:
 1558              	.LBE61:
 787:Middlewares/Third_Party/FreeRTOS/Source/timers.c **** 							( void ) xResult;
 1559              		.loc 1 787 8 is_stmt 1 discriminator 2 view .LVU419
 787:Middlewares/Third_Party/FreeRTOS/Source/timers.c **** 							( void ) xResult;
 1560              		.loc 1 787 8 discriminator 2 view .LVU420
 787:Middlewares/Third_Party/FreeRTOS/Source/timers.c **** 							( void ) xResult;
 1561              		.loc 1 787 8 discriminator 2 view .LVU421
 1562 00aa FEE7     		b	.L110
 1563              	.LVL122:
 1564              	.L106:
 804:Middlewares/Third_Party/FreeRTOS/Source/timers.c **** 					break;
 1565              		.loc 1 804 6 view .LVU422
 804:Middlewares/Third_Party/FreeRTOS/Source/timers.c **** 					break;
 1566              		.loc 1 804 24 is_stmt 0 view .LVU423
 1567 00ac 94F82830 		ldrb	r3, [r4, #40]	@ zero_extendqisi2
 1568 00b0 23F00103 		bic	r3, r3, #1
 1569 00b4 84F82830 		strb	r3, [r4, #40]
 805:Middlewares/Third_Party/FreeRTOS/Source/timers.c **** 
 1570              		.loc 1 805 6 is_stmt 1 view .LVU424
ARM GAS  C:\msys64\tmp\ccn4BJFy.s 			page 55


 1571 00b8 A8E7     		b	.L101
 1572              	.L104:
 809:Middlewares/Third_Party/FreeRTOS/Source/timers.c **** 					pxTimer->xTimerPeriodInTicks = xMessage.u.xTimerParameters.xMessageValue;
 1573              		.loc 1 809 6 view .LVU425
 809:Middlewares/Third_Party/FreeRTOS/Source/timers.c **** 					pxTimer->xTimerPeriodInTicks = xMessage.u.xTimerParameters.xMessageValue;
 1574              		.loc 1 809 24 is_stmt 0 view .LVU426
 1575 00ba 94F82830 		ldrb	r3, [r4, #40]	@ zero_extendqisi2
 1576 00be 43F00103 		orr	r3, r3, #1
 1577 00c2 84F82830 		strb	r3, [r4, #40]
 810:Middlewares/Third_Party/FreeRTOS/Source/timers.c **** 					configASSERT( ( pxTimer->xTimerPeriodInTicks > 0 ) );
 1578              		.loc 1 810 6 is_stmt 1 view .LVU427
 810:Middlewares/Third_Party/FreeRTOS/Source/timers.c **** 					configASSERT( ( pxTimer->xTimerPeriodInTicks > 0 ) );
 1579              		.loc 1 810 64 is_stmt 0 view .LVU428
 1580 00c6 0599     		ldr	r1, [sp, #20]
 810:Middlewares/Third_Party/FreeRTOS/Source/timers.c **** 					configASSERT( ( pxTimer->xTimerPeriodInTicks > 0 ) );
 1581              		.loc 1 810 35 view .LVU429
 1582 00c8 A161     		str	r1, [r4, #24]
 811:Middlewares/Third_Party/FreeRTOS/Source/timers.c **** 
 1583              		.loc 1 811 6 is_stmt 1 view .LVU430
 1584 00ca 31B1     		cbz	r1, .L118
 811:Middlewares/Third_Party/FreeRTOS/Source/timers.c **** 
 1585              		.loc 1 811 58 discriminator 2 view .LVU431
 819:Middlewares/Third_Party/FreeRTOS/Source/timers.c **** 					break;
 1586              		.loc 1 819 6 discriminator 2 view .LVU432
 819:Middlewares/Third_Party/FreeRTOS/Source/timers.c **** 					break;
 1587              		.loc 1 819 15 is_stmt 0 discriminator 2 view .LVU433
 1588 00cc 0346     		mov	r3, r0
 1589 00ce 0246     		mov	r2, r0
 1590 00d0 0144     		add	r1, r1, r0
 1591 00d2 2046     		mov	r0, r4
 1592              	.LVL123:
 819:Middlewares/Third_Party/FreeRTOS/Source/timers.c **** 					break;
 1593              		.loc 1 819 15 discriminator 2 view .LVU434
 1594 00d4 FFF7FEFF 		bl	prvInsertTimerInActiveList
 1595              	.LVL124:
 820:Middlewares/Third_Party/FreeRTOS/Source/timers.c **** 
 1596              		.loc 1 820 6 is_stmt 1 discriminator 2 view .LVU435
 1597 00d8 98E7     		b	.L101
 1598              	.LVL125:
 1599              	.L118:
 811:Middlewares/Third_Party/FreeRTOS/Source/timers.c **** 
 1600              		.loc 1 811 6 view .LVU436
 1601              	.LBB63:
 1602              	.LBI63:
 191:Middlewares/Third_Party/FreeRTOS/Source/portable/GCC/ARM_CM7/r0p1/portmacro.h **** {
 1603              		.loc 2 191 30 view .LVU437
 1604              	.LBB64:
 193:Middlewares/Third_Party/FreeRTOS/Source/portable/GCC/ARM_CM7/r0p1/portmacro.h **** 
 1605              		.loc 2 193 1 view .LVU438
 1606              		.loc 2 195 2 view .LVU439
 1607              		.syntax unified
 1608              	@ 195 "Middlewares/Third_Party/FreeRTOS/Source/portable/GCC/ARM_CM7/r0p1/portmacro.h" 1
 1609 00da 4FF05003 			mov r3, #80												
 1610 00de 72B6     		cpsid i													
 1611 00e0 83F31188 		msr basepri, r3											
 1612 00e4 BFF36F8F 		isb														
 1613 00e8 BFF34F8F 		dsb														
ARM GAS  C:\msys64\tmp\ccn4BJFy.s 			page 56


 1614 00ec 62B6     		cpsie i													
 1615              	
 1616              	@ 0 "" 2
 1617              	.LVL126:
 1618              		.thumb
 1619              		.syntax unified
 1620              	.L112:
 1621              		.loc 2 195 2 is_stmt 0 view .LVU440
 1622              	.LBE64:
 1623              	.LBE63:
 811:Middlewares/Third_Party/FreeRTOS/Source/timers.c **** 
 1624              		.loc 1 811 6 is_stmt 1 discriminator 5 view .LVU441
 811:Middlewares/Third_Party/FreeRTOS/Source/timers.c **** 
 1625              		.loc 1 811 6 discriminator 5 view .LVU442
 811:Middlewares/Third_Party/FreeRTOS/Source/timers.c **** 
 1626              		.loc 1 811 6 discriminator 5 view .LVU443
 1627 00ee FEE7     		b	.L112
 1628              	.L108:
 828:Middlewares/Third_Party/FreeRTOS/Source/timers.c **** 						{
 1629              		.loc 1 828 7 view .LVU444
 828:Middlewares/Third_Party/FreeRTOS/Source/timers.c **** 						{
 1630              		.loc 1 828 20 is_stmt 0 view .LVU445
 1631 00f0 94F82830 		ldrb	r3, [r4, #40]	@ zero_extendqisi2
 828:Middlewares/Third_Party/FreeRTOS/Source/timers.c **** 						{
 1632              		.loc 1 828 9 view .LVU446
 1633 00f4 13F0020F 		tst	r3, #2
 1634 00f8 04D0     		beq	.L119
 834:Middlewares/Third_Party/FreeRTOS/Source/timers.c **** 						}
 1635              		.loc 1 834 8 is_stmt 1 view .LVU447
 834:Middlewares/Third_Party/FreeRTOS/Source/timers.c **** 						}
 1636              		.loc 1 834 26 is_stmt 0 view .LVU448
 1637 00fa 23F00103 		bic	r3, r3, #1
 1638 00fe 84F82830 		strb	r3, [r4, #40]
 1639 0102 83E7     		b	.L101
 1640              	.L119:
 830:Middlewares/Third_Party/FreeRTOS/Source/timers.c **** 						}
 1641              		.loc 1 830 8 is_stmt 1 view .LVU449
 1642 0104 2046     		mov	r0, r4
 1643              	.LVL127:
 830:Middlewares/Third_Party/FreeRTOS/Source/timers.c **** 						}
 1644              		.loc 1 830 8 is_stmt 0 view .LVU450
 1645 0106 FFF7FEFF 		bl	vPortFree
 1646              	.LVL128:
 1647 010a 7FE7     		b	.L101
 1648              	.LVL129:
 1649              	.L117:
 854:Middlewares/Third_Party/FreeRTOS/Source/timers.c **** /*-----------------------------------------------------------*/
 1650              		.loc 1 854 1 view .LVU451
 1651 010c 08B0     		add	sp, sp, #32
 1652              	.LCFI36:
 1653              		.cfi_def_cfa_offset 8
 1654              		@ sp needed
 1655 010e 10BD     		pop	{r4, pc}
 1656              	.L121:
 1657              		.align	2
 1658              	.L120:
 1659 0110 00000000 		.word	.LANCHOR2
ARM GAS  C:\msys64\tmp\ccn4BJFy.s 			page 57


 1660              		.cfi_endproc
 1661              	.LFE20:
 1663              		.section	.text.prvTimerTask,"ax",%progbits
 1664              		.align	1
 1665              		.syntax unified
 1666              		.thumb
 1667              		.thumb_func
 1669              	prvTimerTask:
 1670              	.LFB15:
 524:Middlewares/Third_Party/FreeRTOS/Source/timers.c **** TickType_t xNextExpireTime;
 1671              		.loc 1 524 1 is_stmt 1 view -0
 1672              		.cfi_startproc
 1673              		@ args = 0, pretend = 0, frame = 8
 1674              		@ frame_needed = 0, uses_anonymous_args = 0
 1675              	.LVL130:
 524:Middlewares/Third_Party/FreeRTOS/Source/timers.c **** TickType_t xNextExpireTime;
 1676              		.loc 1 524 1 is_stmt 0 view .LVU453
 1677 0000 00B5     		push	{lr}
 1678              	.LCFI37:
 1679              		.cfi_def_cfa_offset 4
 1680              		.cfi_offset 14, -4
 1681 0002 83B0     		sub	sp, sp, #12
 1682              	.LCFI38:
 1683              		.cfi_def_cfa_offset 16
 1684              	.LVL131:
 1685              	.L123:
 525:Middlewares/Third_Party/FreeRTOS/Source/timers.c **** BaseType_t xListWasEmpty;
 1686              		.loc 1 525 1 is_stmt 1 discriminator 1 view .LVU454
 526:Middlewares/Third_Party/FreeRTOS/Source/timers.c **** 
 1687              		.loc 1 526 1 discriminator 1 view .LVU455
 529:Middlewares/Third_Party/FreeRTOS/Source/timers.c **** 
 1688              		.loc 1 529 2 discriminator 1 view .LVU456
 543:Middlewares/Third_Party/FreeRTOS/Source/timers.c **** 	{
 1689              		.loc 1 543 2 discriminator 1 view .LVU457
 547:Middlewares/Third_Party/FreeRTOS/Source/timers.c **** 
 1690              		.loc 1 547 3 discriminator 1 view .LVU458
 547:Middlewares/Third_Party/FreeRTOS/Source/timers.c **** 
 1691              		.loc 1 547 21 is_stmt 0 discriminator 1 view .LVU459
 1692 0004 01A8     		add	r0, sp, #4
 1693 0006 FFF7FEFF 		bl	prvGetNextExpireTime
 1694              	.LVL132:
 551:Middlewares/Third_Party/FreeRTOS/Source/timers.c **** 
 1695              		.loc 1 551 3 is_stmt 1 discriminator 1 view .LVU460
 1696 000a 0199     		ldr	r1, [sp, #4]
 1697 000c FFF7FEFF 		bl	prvProcessTimerOrBlockTask
 1698              	.LVL133:
 554:Middlewares/Third_Party/FreeRTOS/Source/timers.c **** 	}
 1699              		.loc 1 554 3 discriminator 1 view .LVU461
 1700 0010 FFF7FEFF 		bl	prvProcessReceivedCommands
 1701              	.LVL134:
 543:Middlewares/Third_Party/FreeRTOS/Source/timers.c **** 	{
 1702              		.loc 1 543 8 discriminator 1 view .LVU462
 1703 0014 F6E7     		b	.L123
 1704              		.cfi_endproc
 1705              	.LFE15:
 1707              		.section	.text.xTimerGetTimerDaemonTaskHandle,"ax",%progbits
 1708              		.align	1
ARM GAS  C:\msys64\tmp\ccn4BJFy.s 			page 58


 1709              		.global	xTimerGetTimerDaemonTaskHandle
 1710              		.syntax unified
 1711              		.thumb
 1712              		.thumb_func
 1714              	xTimerGetTimerDaemonTaskHandle:
 1715              	.LFB9:
 425:Middlewares/Third_Party/FreeRTOS/Source/timers.c **** 	/* If xTimerGetTimerDaemonTaskHandle() is called before the scheduler has been
 1716              		.loc 1 425 1 view -0
 1717              		.cfi_startproc
 1718              		@ args = 0, pretend = 0, frame = 0
 1719              		@ frame_needed = 0, uses_anonymous_args = 0
 1720              		@ link register save eliminated.
 428:Middlewares/Third_Party/FreeRTOS/Source/timers.c **** 	return xTimerTaskHandle;
 1721              		.loc 1 428 2 view .LVU464
 1722 0000 074B     		ldr	r3, .L129
 1723 0002 1868     		ldr	r0, [r3]
 1724 0004 00B1     		cbz	r0, .L128
 430:Middlewares/Third_Party/FreeRTOS/Source/timers.c **** /*-----------------------------------------------------------*/
 1725              		.loc 1 430 1 is_stmt 0 view .LVU465
 1726 0006 7047     		bx	lr
 1727              	.L128:
 428:Middlewares/Third_Party/FreeRTOS/Source/timers.c **** 	return xTimerTaskHandle;
 1728              		.loc 1 428 2 is_stmt 1 view .LVU466
 1729              	.LBB65:
 1730              	.LBI65:
 191:Middlewares/Third_Party/FreeRTOS/Source/portable/GCC/ARM_CM7/r0p1/portmacro.h **** {
 1731              		.loc 2 191 30 view .LVU467
 1732              	.LBB66:
 193:Middlewares/Third_Party/FreeRTOS/Source/portable/GCC/ARM_CM7/r0p1/portmacro.h **** 
 1733              		.loc 2 193 1 view .LVU468
 1734              		.loc 2 195 2 view .LVU469
 1735              		.syntax unified
 1736              	@ 195 "Middlewares/Third_Party/FreeRTOS/Source/portable/GCC/ARM_CM7/r0p1/portmacro.h" 1
 1737 0008 4FF05003 			mov r3, #80												
 1738 000c 72B6     		cpsid i													
 1739 000e 83F31188 		msr basepri, r3											
 1740 0012 BFF36F8F 		isb														
 1741 0016 BFF34F8F 		dsb														
 1742 001a 62B6     		cpsie i													
 1743              	
 1744              	@ 0 "" 2
 1745              	.LVL135:
 1746              		.thumb
 1747              		.syntax unified
 1748              	.L127:
 1749              		.loc 2 195 2 is_stmt 0 view .LVU470
 1750              	.LBE66:
 1751              	.LBE65:
 428:Middlewares/Third_Party/FreeRTOS/Source/timers.c **** 	return xTimerTaskHandle;
 1752              		.loc 1 428 2 is_stmt 1 discriminator 1 view .LVU471
 428:Middlewares/Third_Party/FreeRTOS/Source/timers.c **** 	return xTimerTaskHandle;
 1753              		.loc 1 428 2 discriminator 1 view .LVU472
 428:Middlewares/Third_Party/FreeRTOS/Source/timers.c **** 	return xTimerTaskHandle;
 1754              		.loc 1 428 2 discriminator 1 view .LVU473
 1755 001c FEE7     		b	.L127
 1756              	.L130:
 1757 001e 00BF     		.align	2
ARM GAS  C:\msys64\tmp\ccn4BJFy.s 			page 59


 1758              	.L129:
 1759 0020 00000000 		.word	.LANCHOR7
 1760              		.cfi_endproc
 1761              	.LFE9:
 1763              		.section	.text.xTimerGetPeriod,"ax",%progbits
 1764              		.align	1
 1765              		.global	xTimerGetPeriod
 1766              		.syntax unified
 1767              		.thumb
 1768              		.thumb_func
 1770              	xTimerGetPeriod:
 1771              	.LVL136:
 1772              	.LFB10:
 434:Middlewares/Third_Party/FreeRTOS/Source/timers.c **** Timer_t *pxTimer = xTimer;
 1773              		.loc 1 434 1 view -0
 1774              		.cfi_startproc
 1775              		@ args = 0, pretend = 0, frame = 0
 1776              		@ frame_needed = 0, uses_anonymous_args = 0
 1777              		@ link register save eliminated.
 435:Middlewares/Third_Party/FreeRTOS/Source/timers.c **** 
 1778              		.loc 1 435 1 view .LVU475
 437:Middlewares/Third_Party/FreeRTOS/Source/timers.c **** 	return pxTimer->xTimerPeriodInTicks;
 1779              		.loc 1 437 2 view .LVU476
 1780 0000 08B1     		cbz	r0, .L134
 437:Middlewares/Third_Party/FreeRTOS/Source/timers.c **** 	return pxTimer->xTimerPeriodInTicks;
 1781              		.loc 1 437 24 discriminator 2 view .LVU477
 438:Middlewares/Third_Party/FreeRTOS/Source/timers.c **** }
 1782              		.loc 1 438 2 discriminator 2 view .LVU478
 439:Middlewares/Third_Party/FreeRTOS/Source/timers.c **** /*-----------------------------------------------------------*/
 1783              		.loc 1 439 1 is_stmt 0 discriminator 2 view .LVU479
 1784 0002 8069     		ldr	r0, [r0, #24]
 1785              	.LVL137:
 439:Middlewares/Third_Party/FreeRTOS/Source/timers.c **** /*-----------------------------------------------------------*/
 1786              		.loc 1 439 1 discriminator 2 view .LVU480
 1787 0004 7047     		bx	lr
 1788              	.LVL138:
 1789              	.L134:
 437:Middlewares/Third_Party/FreeRTOS/Source/timers.c **** 	return pxTimer->xTimerPeriodInTicks;
 1790              		.loc 1 437 2 is_stmt 1 view .LVU481
 1791              	.LBB67:
 1792              	.LBI67:
 191:Middlewares/Third_Party/FreeRTOS/Source/portable/GCC/ARM_CM7/r0p1/portmacro.h **** {
 1793              		.loc 2 191 30 view .LVU482
 1794              	.LBB68:
 193:Middlewares/Third_Party/FreeRTOS/Source/portable/GCC/ARM_CM7/r0p1/portmacro.h **** 
 1795              		.loc 2 193 1 view .LVU483
 1796              		.loc 2 195 2 view .LVU484
 1797              		.syntax unified
 1798              	@ 195 "Middlewares/Third_Party/FreeRTOS/Source/portable/GCC/ARM_CM7/r0p1/portmacro.h" 1
 1799 0006 4FF05003 			mov r3, #80												
 1800 000a 72B6     		cpsid i													
 1801 000c 83F31188 		msr basepri, r3											
 1802 0010 BFF36F8F 		isb														
 1803 0014 BFF34F8F 		dsb														
 1804 0018 62B6     		cpsie i													
 1805              	
 1806              	@ 0 "" 2
ARM GAS  C:\msys64\tmp\ccn4BJFy.s 			page 60


 1807              	.LVL139:
 1808              		.thumb
 1809              		.syntax unified
 1810              	.L133:
 1811              		.loc 2 195 2 is_stmt 0 view .LVU485
 1812              	.LBE68:
 1813              	.LBE67:
 437:Middlewares/Third_Party/FreeRTOS/Source/timers.c **** 	return pxTimer->xTimerPeriodInTicks;
 1814              		.loc 1 437 2 is_stmt 1 discriminator 1 view .LVU486
 437:Middlewares/Third_Party/FreeRTOS/Source/timers.c **** 	return pxTimer->xTimerPeriodInTicks;
 1815              		.loc 1 437 2 discriminator 1 view .LVU487
 437:Middlewares/Third_Party/FreeRTOS/Source/timers.c **** 	return pxTimer->xTimerPeriodInTicks;
 1816              		.loc 1 437 2 discriminator 1 view .LVU488
 1817 001a FEE7     		b	.L133
 1818              		.cfi_endproc
 1819              	.LFE10:
 1821              		.section	.text.vTimerSetReloadMode,"ax",%progbits
 1822              		.align	1
 1823              		.global	vTimerSetReloadMode
 1824              		.syntax unified
 1825              		.thumb
 1826              		.thumb_func
 1828              	vTimerSetReloadMode:
 1829              	.LVL140:
 1830              	.LFB11:
 443:Middlewares/Third_Party/FreeRTOS/Source/timers.c **** Timer_t * pxTimer =  xTimer;
 1831              		.loc 1 443 1 view -0
 1832              		.cfi_startproc
 1833              		@ args = 0, pretend = 0, frame = 0
 1834              		@ frame_needed = 0, uses_anonymous_args = 0
 443:Middlewares/Third_Party/FreeRTOS/Source/timers.c **** Timer_t * pxTimer =  xTimer;
 1835              		.loc 1 443 1 is_stmt 0 view .LVU490
 1836 0000 38B5     		push	{r3, r4, r5, lr}
 1837              	.LCFI39:
 1838              		.cfi_def_cfa_offset 16
 1839              		.cfi_offset 3, -16
 1840              		.cfi_offset 4, -12
 1841              		.cfi_offset 5, -8
 1842              		.cfi_offset 14, -4
 444:Middlewares/Third_Party/FreeRTOS/Source/timers.c **** 
 1843              		.loc 1 444 1 is_stmt 1 view .LVU491
 1844              	.LVL141:
 446:Middlewares/Third_Party/FreeRTOS/Source/timers.c **** 	taskENTER_CRITICAL();
 1845              		.loc 1 446 2 view .LVU492
 1846 0002 68B1     		cbz	r0, .L141
 1847 0004 0C46     		mov	r4, r1
 1848 0006 0546     		mov	r5, r0
 446:Middlewares/Third_Party/FreeRTOS/Source/timers.c **** 	taskENTER_CRITICAL();
 1849              		.loc 1 446 24 discriminator 2 view .LVU493
 447:Middlewares/Third_Party/FreeRTOS/Source/timers.c **** 	{
 1850              		.loc 1 447 2 discriminator 2 view .LVU494
 1851 0008 FFF7FEFF 		bl	vPortEnterCritical
 1852              	.LVL142:
 449:Middlewares/Third_Party/FreeRTOS/Source/timers.c **** 		{
 1853              		.loc 1 449 3 discriminator 2 view .LVU495
 449:Middlewares/Third_Party/FreeRTOS/Source/timers.c **** 		{
 1854              		.loc 1 449 5 is_stmt 0 discriminator 2 view .LVU496
ARM GAS  C:\msys64\tmp\ccn4BJFy.s 			page 61


 1855 000c 9CB1     		cbz	r4, .L138
 451:Middlewares/Third_Party/FreeRTOS/Source/timers.c **** 		}
 1856              		.loc 1 451 4 is_stmt 1 view .LVU497
 451:Middlewares/Third_Party/FreeRTOS/Source/timers.c **** 		}
 1857              		.loc 1 451 22 is_stmt 0 view .LVU498
 1858 000e 95F82830 		ldrb	r3, [r5, #40]	@ zero_extendqisi2
 1859 0012 43F00403 		orr	r3, r3, #4
 1860 0016 85F82830 		strb	r3, [r5, #40]
 1861              	.L139:
 458:Middlewares/Third_Party/FreeRTOS/Source/timers.c **** }
 1862              		.loc 1 458 2 is_stmt 1 view .LVU499
 1863 001a FFF7FEFF 		bl	vPortExitCritical
 1864              	.LVL143:
 459:Middlewares/Third_Party/FreeRTOS/Source/timers.c **** /*-----------------------------------------------------------*/
 1865              		.loc 1 459 1 is_stmt 0 view .LVU500
 1866 001e 38BD     		pop	{r3, r4, r5, pc}
 1867              	.LVL144:
 1868              	.L141:
 446:Middlewares/Third_Party/FreeRTOS/Source/timers.c **** 	taskENTER_CRITICAL();
 1869              		.loc 1 446 2 is_stmt 1 view .LVU501
 1870              	.LBB69:
 1871              	.LBI69:
 191:Middlewares/Third_Party/FreeRTOS/Source/portable/GCC/ARM_CM7/r0p1/portmacro.h **** {
 1872              		.loc 2 191 30 view .LVU502
 1873              	.LBB70:
 193:Middlewares/Third_Party/FreeRTOS/Source/portable/GCC/ARM_CM7/r0p1/portmacro.h **** 
 1874              		.loc 2 193 1 view .LVU503
 1875              		.loc 2 195 2 view .LVU504
 1876              		.syntax unified
 1877              	@ 195 "Middlewares/Third_Party/FreeRTOS/Source/portable/GCC/ARM_CM7/r0p1/portmacro.h" 1
 1878 0020 4FF05003 			mov r3, #80												
 1879 0024 72B6     		cpsid i													
 1880 0026 83F31188 		msr basepri, r3											
 1881 002a BFF36F8F 		isb														
 1882 002e BFF34F8F 		dsb														
 1883 0032 62B6     		cpsie i													
 1884              	
 1885              	@ 0 "" 2
 1886              	.LVL145:
 1887              		.thumb
 1888              		.syntax unified
 1889              	.L137:
 1890              		.loc 2 195 2 is_stmt 0 view .LVU505
 1891              	.LBE70:
 1892              	.LBE69:
 446:Middlewares/Third_Party/FreeRTOS/Source/timers.c **** 	taskENTER_CRITICAL();
 1893              		.loc 1 446 2 is_stmt 1 discriminator 1 view .LVU506
 446:Middlewares/Third_Party/FreeRTOS/Source/timers.c **** 	taskENTER_CRITICAL();
 1894              		.loc 1 446 2 discriminator 1 view .LVU507
 446:Middlewares/Third_Party/FreeRTOS/Source/timers.c **** 	taskENTER_CRITICAL();
 1895              		.loc 1 446 2 discriminator 1 view .LVU508
 1896 0034 FEE7     		b	.L137
 1897              	.LVL146:
 1898              	.L138:
 455:Middlewares/Third_Party/FreeRTOS/Source/timers.c **** 		}
 1899              		.loc 1 455 4 view .LVU509
 455:Middlewares/Third_Party/FreeRTOS/Source/timers.c **** 		}
ARM GAS  C:\msys64\tmp\ccn4BJFy.s 			page 62


 1900              		.loc 1 455 22 is_stmt 0 view .LVU510
 1901 0036 95F82830 		ldrb	r3, [r5, #40]	@ zero_extendqisi2
 1902 003a 23F00403 		bic	r3, r3, #4
 1903 003e 85F82830 		strb	r3, [r5, #40]
 1904 0042 EAE7     		b	.L139
 1905              		.cfi_endproc
 1906              	.LFE11:
 1908              		.section	.text.xTimerGetExpiryTime,"ax",%progbits
 1909              		.align	1
 1910              		.global	xTimerGetExpiryTime
 1911              		.syntax unified
 1912              		.thumb
 1913              		.thumb_func
 1915              	xTimerGetExpiryTime:
 1916              	.LVL147:
 1917              	.LFB12:
 463:Middlewares/Third_Party/FreeRTOS/Source/timers.c **** Timer_t * pxTimer =  xTimer;
 1918              		.loc 1 463 1 is_stmt 1 view -0
 1919              		.cfi_startproc
 1920              		@ args = 0, pretend = 0, frame = 0
 1921              		@ frame_needed = 0, uses_anonymous_args = 0
 1922              		@ link register save eliminated.
 464:Middlewares/Third_Party/FreeRTOS/Source/timers.c **** TickType_t xReturn;
 1923              		.loc 1 464 1 view .LVU512
 465:Middlewares/Third_Party/FreeRTOS/Source/timers.c **** 
 1924              		.loc 1 465 1 view .LVU513
 467:Middlewares/Third_Party/FreeRTOS/Source/timers.c **** 	xReturn = listGET_LIST_ITEM_VALUE( &( pxTimer->xTimerListItem ) );
 1925              		.loc 1 467 2 view .LVU514
 1926 0000 08B1     		cbz	r0, .L145
 467:Middlewares/Third_Party/FreeRTOS/Source/timers.c **** 	xReturn = listGET_LIST_ITEM_VALUE( &( pxTimer->xTimerListItem ) );
 1927              		.loc 1 467 24 discriminator 2 view .LVU515
 468:Middlewares/Third_Party/FreeRTOS/Source/timers.c **** 	return xReturn;
 1928              		.loc 1 468 2 discriminator 2 view .LVU516
 1929              	.LVL148:
 469:Middlewares/Third_Party/FreeRTOS/Source/timers.c **** }
 1930              		.loc 1 469 2 discriminator 2 view .LVU517
 470:Middlewares/Third_Party/FreeRTOS/Source/timers.c **** /*-----------------------------------------------------------*/
 1931              		.loc 1 470 1 is_stmt 0 discriminator 2 view .LVU518
 1932 0002 4068     		ldr	r0, [r0, #4]
 1933              	.LVL149:
 470:Middlewares/Third_Party/FreeRTOS/Source/timers.c **** /*-----------------------------------------------------------*/
 1934              		.loc 1 470 1 discriminator 2 view .LVU519
 1935 0004 7047     		bx	lr
 1936              	.LVL150:
 1937              	.L145:
 467:Middlewares/Third_Party/FreeRTOS/Source/timers.c **** 	xReturn = listGET_LIST_ITEM_VALUE( &( pxTimer->xTimerListItem ) );
 1938              		.loc 1 467 2 is_stmt 1 view .LVU520
 1939              	.LBB71:
 1940              	.LBI71:
 191:Middlewares/Third_Party/FreeRTOS/Source/portable/GCC/ARM_CM7/r0p1/portmacro.h **** {
 1941              		.loc 2 191 30 view .LVU521
 1942              	.LBB72:
 193:Middlewares/Third_Party/FreeRTOS/Source/portable/GCC/ARM_CM7/r0p1/portmacro.h **** 
 1943              		.loc 2 193 1 view .LVU522
 1944              		.loc 2 195 2 view .LVU523
 1945              		.syntax unified
 1946              	@ 195 "Middlewares/Third_Party/FreeRTOS/Source/portable/GCC/ARM_CM7/r0p1/portmacro.h" 1
ARM GAS  C:\msys64\tmp\ccn4BJFy.s 			page 63


 1947 0006 4FF05003 			mov r3, #80												
 1948 000a 72B6     		cpsid i													
 1949 000c 83F31188 		msr basepri, r3											
 1950 0010 BFF36F8F 		isb														
 1951 0014 BFF34F8F 		dsb														
 1952 0018 62B6     		cpsie i													
 1953              	
 1954              	@ 0 "" 2
 1955              	.LVL151:
 1956              		.thumb
 1957              		.syntax unified
 1958              	.L144:
 1959              		.loc 2 195 2 is_stmt 0 view .LVU524
 1960              	.LBE72:
 1961              	.LBE71:
 467:Middlewares/Third_Party/FreeRTOS/Source/timers.c **** 	xReturn = listGET_LIST_ITEM_VALUE( &( pxTimer->xTimerListItem ) );
 1962              		.loc 1 467 2 is_stmt 1 discriminator 1 view .LVU525
 467:Middlewares/Third_Party/FreeRTOS/Source/timers.c **** 	xReturn = listGET_LIST_ITEM_VALUE( &( pxTimer->xTimerListItem ) );
 1963              		.loc 1 467 2 discriminator 1 view .LVU526
 467:Middlewares/Third_Party/FreeRTOS/Source/timers.c **** 	xReturn = listGET_LIST_ITEM_VALUE( &( pxTimer->xTimerListItem ) );
 1964              		.loc 1 467 2 discriminator 1 view .LVU527
 1965 001a FEE7     		b	.L144
 1966              		.cfi_endproc
 1967              	.LFE12:
 1969              		.section	.text.pcTimerGetName,"ax",%progbits
 1970              		.align	1
 1971              		.global	pcTimerGetName
 1972              		.syntax unified
 1973              		.thumb
 1974              		.thumb_func
 1976              	pcTimerGetName:
 1977              	.LVL152:
 1978              	.LFB13:
 474:Middlewares/Third_Party/FreeRTOS/Source/timers.c **** Timer_t *pxTimer = xTimer;
 1979              		.loc 1 474 1 view -0
 1980              		.cfi_startproc
 1981              		@ args = 0, pretend = 0, frame = 0
 1982              		@ frame_needed = 0, uses_anonymous_args = 0
 1983              		@ link register save eliminated.
 475:Middlewares/Third_Party/FreeRTOS/Source/timers.c **** 
 1984              		.loc 1 475 1 view .LVU529
 477:Middlewares/Third_Party/FreeRTOS/Source/timers.c **** 	return pxTimer->pcTimerName;
 1985              		.loc 1 477 2 view .LVU530
 1986 0000 08B1     		cbz	r0, .L149
 477:Middlewares/Third_Party/FreeRTOS/Source/timers.c **** 	return pxTimer->pcTimerName;
 1987              		.loc 1 477 24 discriminator 2 view .LVU531
 478:Middlewares/Third_Party/FreeRTOS/Source/timers.c **** }
 1988              		.loc 1 478 2 discriminator 2 view .LVU532
 479:Middlewares/Third_Party/FreeRTOS/Source/timers.c **** /*-----------------------------------------------------------*/
 1989              		.loc 1 479 1 is_stmt 0 discriminator 2 view .LVU533
 1990 0002 0068     		ldr	r0, [r0]
 1991              	.LVL153:
 479:Middlewares/Third_Party/FreeRTOS/Source/timers.c **** /*-----------------------------------------------------------*/
 1992              		.loc 1 479 1 discriminator 2 view .LVU534
 1993 0004 7047     		bx	lr
 1994              	.LVL154:
 1995              	.L149:
ARM GAS  C:\msys64\tmp\ccn4BJFy.s 			page 64


 477:Middlewares/Third_Party/FreeRTOS/Source/timers.c **** 	return pxTimer->pcTimerName;
 1996              		.loc 1 477 2 is_stmt 1 view .LVU535
 1997              	.LBB73:
 1998              	.LBI73:
 191:Middlewares/Third_Party/FreeRTOS/Source/portable/GCC/ARM_CM7/r0p1/portmacro.h **** {
 1999              		.loc 2 191 30 view .LVU536
 2000              	.LBB74:
 193:Middlewares/Third_Party/FreeRTOS/Source/portable/GCC/ARM_CM7/r0p1/portmacro.h **** 
 2001              		.loc 2 193 1 view .LVU537
 2002              		.loc 2 195 2 view .LVU538
 2003              		.syntax unified
 2004              	@ 195 "Middlewares/Third_Party/FreeRTOS/Source/portable/GCC/ARM_CM7/r0p1/portmacro.h" 1
 2005 0006 4FF05003 			mov r3, #80												
 2006 000a 72B6     		cpsid i													
 2007 000c 83F31188 		msr basepri, r3											
 2008 0010 BFF36F8F 		isb														
 2009 0014 BFF34F8F 		dsb														
 2010 0018 62B6     		cpsie i													
 2011              	
 2012              	@ 0 "" 2
 2013              	.LVL155:
 2014              		.thumb
 2015              		.syntax unified
 2016              	.L148:
 2017              		.loc 2 195 2 is_stmt 0 view .LVU539
 2018              	.LBE74:
 2019              	.LBE73:
 477:Middlewares/Third_Party/FreeRTOS/Source/timers.c **** 	return pxTimer->pcTimerName;
 2020              		.loc 1 477 2 is_stmt 1 discriminator 1 view .LVU540
 477:Middlewares/Third_Party/FreeRTOS/Source/timers.c **** 	return pxTimer->pcTimerName;
 2021              		.loc 1 477 2 discriminator 1 view .LVU541
 477:Middlewares/Third_Party/FreeRTOS/Source/timers.c **** 	return pxTimer->pcTimerName;
 2022              		.loc 1 477 2 discriminator 1 view .LVU542
 2023 001a FEE7     		b	.L148
 2024              		.cfi_endproc
 2025              	.LFE13:
 2027              		.section	.text.xTimerIsTimerActive,"ax",%progbits
 2028              		.align	1
 2029              		.global	xTimerIsTimerActive
 2030              		.syntax unified
 2031              		.thumb
 2032              		.thumb_func
 2034              	xTimerIsTimerActive:
 2035              	.LVL156:
 2036              	.LFB23:
 965:Middlewares/Third_Party/FreeRTOS/Source/timers.c **** /*-----------------------------------------------------------*/
 966:Middlewares/Third_Party/FreeRTOS/Source/timers.c **** 
 967:Middlewares/Third_Party/FreeRTOS/Source/timers.c **** BaseType_t xTimerIsTimerActive( TimerHandle_t xTimer )
 968:Middlewares/Third_Party/FreeRTOS/Source/timers.c **** {
 2037              		.loc 1 968 1 view -0
 2038              		.cfi_startproc
 2039              		@ args = 0, pretend = 0, frame = 0
 2040              		@ frame_needed = 0, uses_anonymous_args = 0
 969:Middlewares/Third_Party/FreeRTOS/Source/timers.c **** BaseType_t xReturn;
 2041              		.loc 1 969 1 view .LVU544
 970:Middlewares/Third_Party/FreeRTOS/Source/timers.c **** Timer_t *pxTimer = xTimer;
 2042              		.loc 1 970 1 view .LVU545
ARM GAS  C:\msys64\tmp\ccn4BJFy.s 			page 65


 971:Middlewares/Third_Party/FreeRTOS/Source/timers.c **** 
 972:Middlewares/Third_Party/FreeRTOS/Source/timers.c **** 	configASSERT( xTimer );
 2043              		.loc 1 972 2 view .LVU546
 2044 0000 68B1     		cbz	r0, .L157
 968:Middlewares/Third_Party/FreeRTOS/Source/timers.c **** BaseType_t xReturn;
 2045              		.loc 1 968 1 is_stmt 0 discriminator 2 view .LVU547
 2046 0002 10B5     		push	{r4, lr}
 2047              	.LCFI40:
 2048              		.cfi_def_cfa_offset 8
 2049              		.cfi_offset 4, -8
 2050              		.cfi_offset 14, -4
 2051 0004 0446     		mov	r4, r0
 2052              		.loc 1 972 24 is_stmt 1 discriminator 2 view .LVU548
 973:Middlewares/Third_Party/FreeRTOS/Source/timers.c **** 
 974:Middlewares/Third_Party/FreeRTOS/Source/timers.c **** 	/* Is the timer in the list of active timers? */
 975:Middlewares/Third_Party/FreeRTOS/Source/timers.c **** 	taskENTER_CRITICAL();
 2053              		.loc 1 975 2 discriminator 2 view .LVU549
 2054 0006 FFF7FEFF 		bl	vPortEnterCritical
 2055              	.LVL157:
 976:Middlewares/Third_Party/FreeRTOS/Source/timers.c **** 	{
 977:Middlewares/Third_Party/FreeRTOS/Source/timers.c **** 		if( ( pxTimer->ucStatus & tmrSTATUS_IS_ACTIVE ) == 0 )
 2056              		.loc 1 977 3 discriminator 2 view .LVU550
 2057              		.loc 1 977 16 is_stmt 0 discriminator 2 view .LVU551
 2058 000a 94F82830 		ldrb	r3, [r4, #40]	@ zero_extendqisi2
 2059              		.loc 1 977 5 discriminator 2 view .LVU552
 2060 000e 13F0010F 		tst	r3, #1
 2061 0012 0FD1     		bne	.L154
 978:Middlewares/Third_Party/FreeRTOS/Source/timers.c **** 		{
 979:Middlewares/Third_Party/FreeRTOS/Source/timers.c **** 			xReturn = pdFALSE;
 2062              		.loc 1 979 12 view .LVU553
 2063 0014 0024     		movs	r4, #0
 2064              	.LVL158:
 2065              	.L153:
 980:Middlewares/Third_Party/FreeRTOS/Source/timers.c **** 		}
 981:Middlewares/Third_Party/FreeRTOS/Source/timers.c **** 		else
 982:Middlewares/Third_Party/FreeRTOS/Source/timers.c **** 		{
 983:Middlewares/Third_Party/FreeRTOS/Source/timers.c **** 			xReturn = pdTRUE;
 984:Middlewares/Third_Party/FreeRTOS/Source/timers.c **** 		}
 985:Middlewares/Third_Party/FreeRTOS/Source/timers.c **** 	}
 986:Middlewares/Third_Party/FreeRTOS/Source/timers.c **** 	taskEXIT_CRITICAL();
 2066              		.loc 1 986 2 is_stmt 1 view .LVU554
 2067 0016 FFF7FEFF 		bl	vPortExitCritical
 2068              	.LVL159:
 987:Middlewares/Third_Party/FreeRTOS/Source/timers.c **** 
 988:Middlewares/Third_Party/FreeRTOS/Source/timers.c **** 	return xReturn;
 2069              		.loc 1 988 2 view .LVU555
 989:Middlewares/Third_Party/FreeRTOS/Source/timers.c **** } /*lint !e818 Can't be pointer to const due to the typedef. */
 2070              		.loc 1 989 1 is_stmt 0 view .LVU556
 2071 001a 2046     		mov	r0, r4
 2072 001c 10BD     		pop	{r4, pc}
 2073              	.LVL160:
 2074              	.L157:
 2075              	.LCFI41:
 2076              		.cfi_def_cfa_offset 0
 2077              		.cfi_restore 4
 2078              		.cfi_restore 14
 972:Middlewares/Third_Party/FreeRTOS/Source/timers.c **** 
ARM GAS  C:\msys64\tmp\ccn4BJFy.s 			page 66


 2079              		.loc 1 972 2 is_stmt 1 view .LVU557
 2080              	.LBB75:
 2081              	.LBI75:
 191:Middlewares/Third_Party/FreeRTOS/Source/portable/GCC/ARM_CM7/r0p1/portmacro.h **** {
 2082              		.loc 2 191 30 view .LVU558
 2083              	.LBB76:
 193:Middlewares/Third_Party/FreeRTOS/Source/portable/GCC/ARM_CM7/r0p1/portmacro.h **** 
 2084              		.loc 2 193 1 view .LVU559
 2085              		.loc 2 195 2 view .LVU560
 2086              		.syntax unified
 2087              	@ 195 "Middlewares/Third_Party/FreeRTOS/Source/portable/GCC/ARM_CM7/r0p1/portmacro.h" 1
 2088 001e 4FF05003 			mov r3, #80												
 2089 0022 72B6     		cpsid i													
 2090 0024 83F31188 		msr basepri, r3											
 2091 0028 BFF36F8F 		isb														
 2092 002c BFF34F8F 		dsb														
 2093 0030 62B6     		cpsie i													
 2094              	
 2095              	@ 0 "" 2
 2096              	.LVL161:
 2097              		.thumb
 2098              		.syntax unified
 2099              	.L152:
 2100              		.loc 2 195 2 is_stmt 0 view .LVU561
 2101              	.LBE76:
 2102              	.LBE75:
 972:Middlewares/Third_Party/FreeRTOS/Source/timers.c **** 
 2103              		.loc 1 972 2 is_stmt 1 discriminator 1 view .LVU562
 972:Middlewares/Third_Party/FreeRTOS/Source/timers.c **** 
 2104              		.loc 1 972 2 discriminator 1 view .LVU563
 972:Middlewares/Third_Party/FreeRTOS/Source/timers.c **** 
 2105              		.loc 1 972 2 discriminator 1 view .LVU564
 2106 0032 FEE7     		b	.L152
 2107              	.LVL162:
 2108              	.L154:
 2109              	.LCFI42:
 2110              		.cfi_def_cfa_offset 8
 2111              		.cfi_offset 4, -8
 2112              		.cfi_offset 14, -4
 983:Middlewares/Third_Party/FreeRTOS/Source/timers.c **** 		}
 2113              		.loc 1 983 12 is_stmt 0 view .LVU565
 2114 0034 0124     		movs	r4, #1
 2115              	.LVL163:
 983:Middlewares/Third_Party/FreeRTOS/Source/timers.c **** 		}
 2116              		.loc 1 983 12 view .LVU566
 2117 0036 EEE7     		b	.L153
 2118              		.cfi_endproc
 2119              	.LFE23:
 2121              		.section	.text.pvTimerGetTimerID,"ax",%progbits
 2122              		.align	1
 2123              		.global	pvTimerGetTimerID
 2124              		.syntax unified
 2125              		.thumb
 2126              		.thumb_func
 2128              	pvTimerGetTimerID:
 2129              	.LVL164:
 2130              	.LFB24:
ARM GAS  C:\msys64\tmp\ccn4BJFy.s 			page 67


 990:Middlewares/Third_Party/FreeRTOS/Source/timers.c **** /*-----------------------------------------------------------*/
 991:Middlewares/Third_Party/FreeRTOS/Source/timers.c **** 
 992:Middlewares/Third_Party/FreeRTOS/Source/timers.c **** void *pvTimerGetTimerID( const TimerHandle_t xTimer )
 993:Middlewares/Third_Party/FreeRTOS/Source/timers.c **** {
 2131              		.loc 1 993 1 is_stmt 1 view -0
 2132              		.cfi_startproc
 2133              		@ args = 0, pretend = 0, frame = 0
 2134              		@ frame_needed = 0, uses_anonymous_args = 0
 994:Middlewares/Third_Party/FreeRTOS/Source/timers.c **** Timer_t * const pxTimer = xTimer;
 2135              		.loc 1 994 1 view .LVU568
 995:Middlewares/Third_Party/FreeRTOS/Source/timers.c **** void *pvReturn;
 2136              		.loc 1 995 1 view .LVU569
 996:Middlewares/Third_Party/FreeRTOS/Source/timers.c **** 
 997:Middlewares/Third_Party/FreeRTOS/Source/timers.c **** 	configASSERT( xTimer );
 2137              		.loc 1 997 2 view .LVU570
 2138 0000 40B1     		cbz	r0, .L163
 993:Middlewares/Third_Party/FreeRTOS/Source/timers.c **** Timer_t * const pxTimer = xTimer;
 2139              		.loc 1 993 1 is_stmt 0 discriminator 2 view .LVU571
 2140 0002 10B5     		push	{r4, lr}
 2141              	.LCFI43:
 2142              		.cfi_def_cfa_offset 8
 2143              		.cfi_offset 4, -8
 2144              		.cfi_offset 14, -4
 2145 0004 0446     		mov	r4, r0
 2146              		.loc 1 997 24 is_stmt 1 discriminator 2 view .LVU572
 998:Middlewares/Third_Party/FreeRTOS/Source/timers.c **** 
 999:Middlewares/Third_Party/FreeRTOS/Source/timers.c **** 	taskENTER_CRITICAL();
 2147              		.loc 1 999 2 discriminator 2 view .LVU573
 2148 0006 FFF7FEFF 		bl	vPortEnterCritical
 2149              	.LVL165:
1000:Middlewares/Third_Party/FreeRTOS/Source/timers.c **** 	{
1001:Middlewares/Third_Party/FreeRTOS/Source/timers.c **** 		pvReturn = pxTimer->pvTimerID;
 2150              		.loc 1 1001 3 discriminator 2 view .LVU574
 2151              		.loc 1 1001 12 is_stmt 0 discriminator 2 view .LVU575
 2152 000a E469     		ldr	r4, [r4, #28]
 2153              	.LVL166:
1002:Middlewares/Third_Party/FreeRTOS/Source/timers.c **** 	}
1003:Middlewares/Third_Party/FreeRTOS/Source/timers.c **** 	taskEXIT_CRITICAL();
 2154              		.loc 1 1003 2 is_stmt 1 discriminator 2 view .LVU576
 2155 000c FFF7FEFF 		bl	vPortExitCritical
 2156              	.LVL167:
1004:Middlewares/Third_Party/FreeRTOS/Source/timers.c **** 
1005:Middlewares/Third_Party/FreeRTOS/Source/timers.c **** 	return pvReturn;
 2157              		.loc 1 1005 2 discriminator 2 view .LVU577
1006:Middlewares/Third_Party/FreeRTOS/Source/timers.c **** }
 2158              		.loc 1 1006 1 is_stmt 0 discriminator 2 view .LVU578
 2159 0010 2046     		mov	r0, r4
 2160 0012 10BD     		pop	{r4, pc}
 2161              	.LVL168:
 2162              	.L163:
 2163              	.LCFI44:
 2164              		.cfi_def_cfa_offset 0
 2165              		.cfi_restore 4
 2166              		.cfi_restore 14
 997:Middlewares/Third_Party/FreeRTOS/Source/timers.c **** 
 2167              		.loc 1 997 2 is_stmt 1 view .LVU579
 2168              	.LBB77:
ARM GAS  C:\msys64\tmp\ccn4BJFy.s 			page 68


 2169              	.LBI77:
 191:Middlewares/Third_Party/FreeRTOS/Source/portable/GCC/ARM_CM7/r0p1/portmacro.h **** {
 2170              		.loc 2 191 30 view .LVU580
 2171              	.LBB78:
 193:Middlewares/Third_Party/FreeRTOS/Source/portable/GCC/ARM_CM7/r0p1/portmacro.h **** 
 2172              		.loc 2 193 1 view .LVU581
 2173              		.loc 2 195 2 view .LVU582
 2174              		.syntax unified
 2175              	@ 195 "Middlewares/Third_Party/FreeRTOS/Source/portable/GCC/ARM_CM7/r0p1/portmacro.h" 1
 2176 0014 4FF05003 			mov r3, #80												
 2177 0018 72B6     		cpsid i													
 2178 001a 83F31188 		msr basepri, r3											
 2179 001e BFF36F8F 		isb														
 2180 0022 BFF34F8F 		dsb														
 2181 0026 62B6     		cpsie i													
 2182              	
 2183              	@ 0 "" 2
 2184              	.LVL169:
 2185              		.thumb
 2186              		.syntax unified
 2187              	.L160:
 2188              		.loc 2 195 2 is_stmt 0 view .LVU583
 2189              	.LBE78:
 2190              	.LBE77:
 997:Middlewares/Third_Party/FreeRTOS/Source/timers.c **** 
 2191              		.loc 1 997 2 is_stmt 1 discriminator 1 view .LVU584
 997:Middlewares/Third_Party/FreeRTOS/Source/timers.c **** 
 2192              		.loc 1 997 2 discriminator 1 view .LVU585
 997:Middlewares/Third_Party/FreeRTOS/Source/timers.c **** 
 2193              		.loc 1 997 2 discriminator 1 view .LVU586
 2194 0028 FEE7     		b	.L160
 2195              		.cfi_endproc
 2196              	.LFE24:
 2198              		.section	.text.vTimerSetTimerID,"ax",%progbits
 2199              		.align	1
 2200              		.global	vTimerSetTimerID
 2201              		.syntax unified
 2202              		.thumb
 2203              		.thumb_func
 2205              	vTimerSetTimerID:
 2206              	.LVL170:
 2207              	.LFB25:
1007:Middlewares/Third_Party/FreeRTOS/Source/timers.c **** /*-----------------------------------------------------------*/
1008:Middlewares/Third_Party/FreeRTOS/Source/timers.c **** 
1009:Middlewares/Third_Party/FreeRTOS/Source/timers.c **** void vTimerSetTimerID( TimerHandle_t xTimer, void *pvNewID )
1010:Middlewares/Third_Party/FreeRTOS/Source/timers.c **** {
 2208              		.loc 1 1010 1 view -0
 2209              		.cfi_startproc
 2210              		@ args = 0, pretend = 0, frame = 0
 2211              		@ frame_needed = 0, uses_anonymous_args = 0
 2212              		.loc 1 1010 1 is_stmt 0 view .LVU588
 2213 0000 38B5     		push	{r3, r4, r5, lr}
 2214              	.LCFI45:
 2215              		.cfi_def_cfa_offset 16
 2216              		.cfi_offset 3, -16
 2217              		.cfi_offset 4, -12
